
========================================================================

** ELF Header Information

    File Name: C:\Users\WMX\Desktop\STM32F1\out\STM32F1.axf

    Machine class: ELFCLASS32 (32-bit)
    Data encoding: ELFDATA2LSB (Little endian)
    Header version: EV_CURRENT (Current version)
    Operating System ABI: none
    ABI Version: 0
    File Type: ET_EXEC (Executable) (2)
    Machine: EM_ARM (ARM)

    Image Entry point: 0x08000131
    Flags: EF_ARM_HASENTRY + EF_ARM_ABI_FLOAT_SOFT (0x05000202)

    ARM ELF revision: 5 (ABI version 2)

    Conforms to Soft float procedure-call standard

    Built with
    Component: ARM Compiler 5.06 update 7 (build 960) Tool: armasm [4d35fa]
    Component: ARM Compiler 5.06 update 7 (build 960) Tool: armlink [4d3601]

    Header size: 52 bytes (0x34)
    Program header entry size: 32 bytes (0x20)
    Section header entry size: 40 bytes (0x28)

    Program header entries: 1
    Section header entries: 16

    Program header offset: 316528 (0x0004d470)
    Section header offset: 316560 (0x0004d490)

    Section header string table index: 15

========================================================================

** Program header #0 (PT_LOAD) [PF_X + PF_W + PF_R + PF_ARM_ENTRY]
    Size : 4608 bytes (3580 bytes in file)
    Virtual address: 0x08000000 (Alignment 8)


========================================================================

** Section #1 'ER_IROM1' (SHT_PROGBITS) [SHF_ALLOC + SHF_EXECINSTR]
    Size   : 3536 bytes (alignment 4)
    Address: 0x08000000

    $d.realdata
    RESET
    __Vectors
        0x08000000:    20000430    0..     DCD    536871984
        0x08000004:    080003e1    ....    DCD    134218721
        0x08000008:    080003e9    ....    DCD    134218729
        0x0800000c:    080003eb    ....    DCD    134218731
        0x08000010:    080003ed    ....    DCD    134218733
        0x08000014:    080003ef    ....    DCD    134218735
        0x08000018:    080003f1    ....    DCD    134218737
        0x0800001c:    00000000    ....    DCD    0
        0x08000020:    00000000    ....    DCD    0
        0x08000024:    00000000    ....    DCD    0
        0x08000028:    00000000    ....    DCD    0
        0x0800002c:    080003f3    ....    DCD    134218739
        0x08000030:    080003f5    ....    DCD    134218741
        0x08000034:    00000000    ....    DCD    0
        0x08000038:    080003f7    ....    DCD    134218743
        0x0800003c:    080003f9    ....    DCD    134218745
        0x08000040:    080003fb    ....    DCD    134218747
        0x08000044:    080003fb    ....    DCD    134218747
        0x08000048:    080003fb    ....    DCD    134218747
        0x0800004c:    080003fb    ....    DCD    134218747
        0x08000050:    080003fb    ....    DCD    134218747
        0x08000054:    080003fb    ....    DCD    134218747
        0x08000058:    080003fb    ....    DCD    134218747
        0x0800005c:    080003fb    ....    DCD    134218747
        0x08000060:    080003fb    ....    DCD    134218747
        0x08000064:    080003fb    ....    DCD    134218747
        0x08000068:    080003fb    ....    DCD    134218747
        0x0800006c:    080003fb    ....    DCD    134218747
        0x08000070:    080003fb    ....    DCD    134218747
        0x08000074:    080003fb    ....    DCD    134218747
        0x08000078:    080003fb    ....    DCD    134218747
        0x0800007c:    080003fb    ....    DCD    134218747
        0x08000080:    080003fb    ....    DCD    134218747
        0x08000084:    080003fb    ....    DCD    134218747
        0x08000088:    080003fb    ....    DCD    134218747
        0x0800008c:    080003fb    ....    DCD    134218747
        0x08000090:    080003fb    ....    DCD    134218747
        0x08000094:    080003fb    ....    DCD    134218747
        0x08000098:    080003fb    ....    DCD    134218747
        0x0800009c:    080003fb    ....    DCD    134218747
        0x080000a0:    080003fb    ....    DCD    134218747
        0x080000a4:    080003fb    ....    DCD    134218747
        0x080000a8:    080003fb    ....    DCD    134218747
        0x080000ac:    080003fb    ....    DCD    134218747
        0x080000b0:    080003fb    ....    DCD    134218747
        0x080000b4:    080003fb    ....    DCD    134218747
        0x080000b8:    080003fb    ....    DCD    134218747
        0x080000bc:    080003fb    ....    DCD    134218747
        0x080000c0:    080003fb    ....    DCD    134218747
        0x080000c4:    080003fb    ....    DCD    134218747
        0x080000c8:    080003fb    ....    DCD    134218747
        0x080000cc:    080003fb    ....    DCD    134218747
        0x080000d0:    080003fb    ....    DCD    134218747
        0x080000d4:    080003fb    ....    DCD    134218747
        0x080000d8:    080003fb    ....    DCD    134218747
        0x080000dc:    080003fb    ....    DCD    134218747
        0x080000e0:    080003fb    ....    DCD    134218747
        0x080000e4:    080003fb    ....    DCD    134218747
        0x080000e8:    080003fb    ....    DCD    134218747
        0x080000ec:    080003fb    ....    DCD    134218747
        0x080000f0:    080003fb    ....    DCD    134218747
        0x080000f4:    080003fb    ....    DCD    134218747
        0x080000f8:    080003fb    ....    DCD    134218747
        0x080000fc:    080003fb    ....    DCD    134218747
        0x08000100:    080003fb    ....    DCD    134218747
        0x08000104:    080003fb    ....    DCD    134218747
        0x08000108:    080003fb    ....    DCD    134218747
        0x0800010c:    080003fb    ....    DCD    134218747
        0x08000110:    080003fb    ....    DCD    134218747
        0x08000114:    080003fb    ....    DCD    134218747
        0x08000118:    080003fb    ....    DCD    134218747
        0x0800011c:    080003fb    ....    DCD    134218747
        0x08000120:    080003fb    ....    DCD    134218747
        0x08000124:    080003fb    ....    DCD    134218747
        0x08000128:    080003fb    ....    DCD    134218747
        0x0800012c:    080003fb    ....    DCD    134218747
    $t
    .ARM.Collect$$$$00000000
    .ARM.Collect$$$$00000001
    __Vectors_End
    __main
    _main_stk
        0x08000130:    f8dfd010    ....    LDR      sp,__lit__00000000 ; [0x8000144] = 0x20000430
    .ARM.Collect$$$$00000004
    _main_scatterload
        0x08000134:    f000fdfa    ....    BL       __scatterload ; 0x8000d2c
    .ARM.Collect$$$$00000008
    .ARM.Collect$$$$0000000A
    .ARM.Collect$$$$0000000B
    __main_after_scatterload
    _main_clock
    _main_cpp_init
    _main_init
        0x08000138:    4800        .H      LDR      r0,[pc,#0] ; [0x800013c] = 0x80001ad
        0x0800013a:    4700        .G      BX       r0
    $d
        0x0800013c:    080001ad    ....    DCD    134218157
    $t
    .ARM.Collect$$$$0000000E
    __rt_lib_shutdown_fini
        0x08000140:    f3af8000    ....    NOP.W    
    $d
    .ARM.Collect$$$$00002712
    __lit__00000000
    .ARM.Collect$$$$0000000F
    .ARM.Collect$$$$00000011
    __rt_final_cpp
    __rt_final_exit
        0x08000144:    20000430    0..     DCD    536871984
    $t
    .text
    SerialInit
        0x08000148:    b530        0.      PUSH     {r4,r5,lr}
        0x0800014a:    b087        ..      SUB      sp,sp,#0x1c
        0x0800014c:    2101        .!      MOVS     r1,#1
        0x0800014e:    2004        .       MOVS     r0,#4
        0x08000150:    f000fbc7    ....    BL       RCC_APB2PeriphClockCmd ; 0x80008e2
        0x08000154:    4c36        6L      LDR      r4,[pc,#216] ; [0x8000230] = 0x8000da0
        0x08000156:    68a0        .h      LDR      r0,[r4,#8]
        0x08000158:    9006        ..      STR      r0,[sp,#0x18]
        0x0800015a:    4d36        6M      LDR      r5,[pc,#216] ; [0x8000234] = 0x40010800
        0x0800015c:    a906        ..      ADD      r1,sp,#0x18
        0x0800015e:    4628        (F      MOV      r0,r5
        0x08000160:    f000f9b9    ....    BL       GPIO_Init ; 0x80004d6
        0x08000164:    68e1        .h      LDR      r1,[r4,#0xc]
        0x08000166:    9105        ..      STR      r1,[sp,#0x14]
        0x08000168:    a905        ..      ADD      r1,sp,#0x14
        0x0800016a:    4628        (F      MOV      r0,r5
        0x0800016c:    f000f9b3    ....    BL       GPIO_Init ; 0x80004d6
        0x08000170:    2101        .!      MOVS     r1,#1
        0x08000172:    0388        ..      LSLS     r0,r1,#14
        0x08000174:    f000fbb5    ....    BL       RCC_APB2PeriphClockCmd ; 0x80008e2
        0x08000178:    f44f4061    O.a@    MOV      r0,#0xe100
        0x0800017c:    9001        ..      STR      r0,[sp,#4]
        0x0800017e:    2000        .       MOVS     r0,#0
        0x08000180:    f8ad0008    ....    STRH     r0,[sp,#8]
        0x08000184:    f8ad000a    ....    STRH     r0,[sp,#0xa]
        0x08000188:    f8ad000c    ....    STRH     r0,[sp,#0xc]
        0x0800018c:    f8ad0010    ....    STRH     r0,[sp,#0x10]
        0x08000190:    200c        .       MOVS     r0,#0xc
        0x08000192:    f8ad000e    ....    STRH     r0,[sp,#0xe]
        0x08000196:    4c28        (L      LDR      r4,[pc,#160] ; [0x8000238] = 0x40013800
        0x08000198:    a901        ..      ADD      r1,sp,#4
        0x0800019a:    4620         F      MOV      r0,r4
        0x0800019c:    f000fc40    ..@.    BL       USART_Init ; 0x8000a20
        0x080001a0:    2101        .!      MOVS     r1,#1
        0x080001a2:    4620         F      MOV      r0,r4
        0x080001a4:    f000fcb7    ....    BL       USART_Cmd ; 0x8000b16
        0x080001a8:    b007        ..      ADD      sp,sp,#0x1c
        0x080001aa:    bd30        0.      POP      {r4,r5,pc}
    main
        0x080001ac:    b51c        ..      PUSH     {r2-r4,lr}
        0x080001ae:    f7ffffcb    ....    BL       SerialInit ; 0x8000148
        0x080001b2:    2101        .!      MOVS     r1,#1
        0x080001b4:    2010        .       MOVS     r0,#0x10
        0x080001b6:    f000fb94    ....    BL       RCC_APB2PeriphClockCmd ; 0x80008e2
        0x080001ba:    4c1d        .L      LDR      r4,[pc,#116] ; [0x8000230] = 0x8000da0
        0x080001bc:    6820         h      LDR      r0,[r4,#0]
        0x080001be:    9001        ..      STR      r0,[sp,#4]
        0x080001c0:    a901        ..      ADD      r1,sp,#4
        0x080001c2:    481e        .H      LDR      r0,[pc,#120] ; [0x800023c] = 0x40011000
        0x080001c4:    f000f987    ....    BL       GPIO_Init ; 0x80004d6
        0x080001c8:    2101        .!      MOVS     r1,#1
        0x080001ca:    2004        .       MOVS     r0,#4
        0x080001cc:    f000fb89    ....    BL       RCC_APB2PeriphClockCmd ; 0x80008e2
        0x080001d0:    6860        `h      LDR      r0,[r4,#4]
        0x080001d2:    9000        ..      STR      r0,[sp,#0]
        0x080001d4:    4e17        .N      LDR      r6,[pc,#92] ; [0x8000234] = 0x40010800
        0x080001d6:    4669        iF      MOV      r1,sp
        0x080001d8:    4630        0F      MOV      r0,r6
        0x080001da:    f000f97c    ..|.    BL       GPIO_Init ; 0x80004d6
        0x080001de:    4d18        .M      LDR      r5,[pc,#96] ; [0x8000240] = 0x20000000
        0x080001e0:    f44f4700    O..G    MOV      r7,#0x8000
        0x080001e4:    240a        .$      MOVS     r4,#0xa
        0x080001e6:    4639        9F      MOV      r1,r7
        0x080001e8:    4630        0F      MOV      r0,r6
        0x080001ea:    f000f9cf    ....    BL       GPIO_ReadInputDataBit ; 0x800058c
        0x080001ee:    b128        (.      CBZ      r0,0x80001fc ; main + 80
        0x080001f0:    a014        ..      ADR      r0,{pc}+0x54 ; 0x8000244
        0x080001f2:    f000fdad    ....    BL       __0printf$bare ; 0x8000d50
        0x080001f6:    2200        ."      MOVS     r2,#0
        0x080001f8:    682b        +h      LDR      r3,[r5,#0]
        0x080001fa:    e005        ..      B        0x8000208 ; main + 92
        0x080001fc:    a016        ..      ADR      r0,{pc}+0x5c ; 0x8000258
        0x080001fe:    f000fda7    ....    BL       __0printf$bare ; 0x8000d50
        0x08000202:    e7f8        ..      B        0x80001f6 ; main + 74
        0x08000204:    bf00        ..      NOP      
        0x08000206:    1c52        R.      ADDS     r2,r2,#1
        0x08000208:    fbb3f0f4    ....    UDIV     r0,r3,r4
        0x0800020c:    4290        .B      CMP      r0,r2
        0x0800020e:    d9ea        ..      BLS      0x80001e6 ; main + 58
        0x08000210:    e7f8        ..      B        0x8000204 ; main + 88
    fputc
        0x08000212:    b570        p.      PUSH     {r4-r6,lr}
        0x08000214:    4604        .F      MOV      r4,r0
        0x08000216:    4d08        .M      LDR      r5,[pc,#32] ; [0x8000238] = 0x40013800
        0x08000218:    2180        .!      MOVS     r1,#0x80
        0x0800021a:    4628        (F      MOV      r0,r5
        0x0800021c:    f000fd49    ..I.    BL       USART_GetFlagStatus ; 0x8000cb2
        0x08000220:    2800        .(      CMP      r0,#0
        0x08000222:    d0f9        ..      BEQ      0x8000218 ; fputc + 6
        0x08000224:    b2a1        ..      UXTH     r1,r4
        0x08000226:    4628        (F      MOV      r0,r5
        0x08000228:    f000fcd6    ....    BL       USART_SendData ; 0x8000bd8
        0x0800022c:    4620         F      MOV      r0,r4
        0x0800022e:    bd70        p.      POP      {r4-r6,pc}
    $d
        0x08000230:    08000da0    ....    DCD    134221216
        0x08000234:    40010800    ...@    DCD    1073809408
        0x08000238:    40013800    .8.@    DCD    1073821696
        0x0800023c:    40011000    ...@    DCD    1073811456
        0x08000240:    20000000    ...     DCD    536870912
        0x08000244:    46206948    Hi F    DCD    1176529224
        0x08000248:    206d6f72    rom     DCD    544042866
        0x0800024c:    4e564958    XIVN    DCD    1314277720
        0x08000250:    37383931    1987    DCD    926431537
        0x08000254:    000a0d21    !...    DCD    658721
        0x08000258:    654b0a0d    ..Ke    DCD    1699416589
        0x0800025c:    72502079    y Pr    DCD    1917853817
        0x08000260:    65737365    esse    DCD    1702064997
        0x08000264:    0a0d2164    d!..    DCD    168632676
        0x08000268:    00000a0d    ....    DCD    2573
    $t
    .text
    SetSysClockTo72
        0x0800026c:    b50c        ..      PUSH     {r2,r3,lr}
        0x0800026e:    2200        ."      MOVS     r2,#0
        0x08000270:    9201        ..      STR      r2,[sp,#4]
        0x08000272:    9200        ..      STR      r2,[sp,#0]
        0x08000274:    4852        RH      LDR      r0,[pc,#328] ; [0x80003c0] = 0x40021000
        0x08000276:    6801        .h      LDR      r1,[r0,#0]
        0x08000278:    f4413180    A..1    ORR      r1,r1,#0x10000
        0x0800027c:    6001        .`      STR      r1,[r0,#0]
        0x0800027e:    f44f63a0    O..c    MOV      r3,#0x500
        0x08000282:    6801        .h      LDR      r1,[r0,#0]
        0x08000284:    f4013100    ...1    AND      r1,r1,#0x20000
        0x08000288:    9100        ..      STR      r1,[sp,#0]
        0x0800028a:    9901        ..      LDR      r1,[sp,#4]
        0x0800028c:    1c49        I.      ADDS     r1,r1,#1
        0x0800028e:    9101        ..      STR      r1,[sp,#4]
        0x08000290:    9900        ..      LDR      r1,[sp,#0]
        0x08000292:    b911        ..      CBNZ     r1,0x800029a ; SetSysClockTo72 + 46
        0x08000294:    9901        ..      LDR      r1,[sp,#4]
        0x08000296:    4299        .B      CMP      r1,r3
        0x08000298:    d1f3        ..      BNE      0x8000282 ; SetSysClockTo72 + 22
        0x0800029a:    6801        .h      LDR      r1,[r0,#0]
        0x0800029c:    0389        ..      LSLS     r1,r1,#14
        0x0800029e:    d502        ..      BPL      0x80002a6 ; SetSysClockTo72 + 58
        0x080002a0:    2101        .!      MOVS     r1,#1
        0x080002a2:    9100        ..      STR      r1,[sp,#0]
        0x080002a4:    e000        ..      B        0x80002a8 ; SetSysClockTo72 + 60
        0x080002a6:    9200        ..      STR      r2,[sp,#0]
        0x080002a8:    9900        ..      LDR      r1,[sp,#0]
        0x080002aa:    2901        .)      CMP      r1,#1
        0x080002ac:    d130        0.      BNE      0x8000310 ; SetSysClockTo72 + 164
        0x080002ae:    4945        EI      LDR      r1,[pc,#276] ; [0x80003c4] = 0x40022000
        0x080002b0:    680a        .h      LDR      r2,[r1,#0]
        0x080002b2:    f0420210    B...    ORR      r2,r2,#0x10
        0x080002b6:    600a        .`      STR      r2,[r1,#0]
        0x080002b8:    680a        .h      LDR      r2,[r1,#0]
        0x080002ba:    f0220203    "...    BIC      r2,r2,#3
        0x080002be:    600a        .`      STR      r2,[r1,#0]
        0x080002c0:    680a        .h      LDR      r2,[r1,#0]
        0x080002c2:    f0420202    B...    ORR      r2,r2,#2
        0x080002c6:    600a        .`      STR      r2,[r1,#0]
        0x080002c8:    6841        Ah      LDR      r1,[r0,#4]
        0x080002ca:    6041        A`      STR      r1,[r0,#4]
        0x080002cc:    6841        Ah      LDR      r1,[r0,#4]
        0x080002ce:    6041        A`      STR      r1,[r0,#4]
        0x080002d0:    6841        Ah      LDR      r1,[r0,#4]
        0x080002d2:    f4416180    A..a    ORR      r1,r1,#0x400
        0x080002d6:    6041        A`      STR      r1,[r0,#4]
        0x080002d8:    6841        Ah      LDR      r1,[r0,#4]
        0x080002da:    f421117c    !.|.    BIC      r1,r1,#0x3f0000
        0x080002de:    6041        A`      STR      r1,[r0,#4]
        0x080002e0:    6841        Ah      LDR      r1,[r0,#4]
        0x080002e2:    f44111e8    A...    ORR      r1,r1,#0x1d0000
        0x080002e6:    6041        A`      STR      r1,[r0,#4]
        0x080002e8:    6801        .h      LDR      r1,[r0,#0]
        0x080002ea:    f0417180    A..q    ORR      r1,r1,#0x1000000
        0x080002ee:    6001        .`      STR      r1,[r0,#0]
        0x080002f0:    6801        .h      LDR      r1,[r0,#0]
        0x080002f2:    0189        ..      LSLS     r1,r1,#6
        0x080002f4:    d5fc        ..      BPL      0x80002f0 ; SetSysClockTo72 + 132
        0x080002f6:    6841        Ah      LDR      r1,[r0,#4]
        0x080002f8:    f0210103    !...    BIC      r1,r1,#3
        0x080002fc:    6041        A`      STR      r1,[r0,#4]
        0x080002fe:    6841        Ah      LDR      r1,[r0,#4]
        0x08000300:    f0410102    A...    ORR      r1,r1,#2
        0x08000304:    6041        A`      STR      r1,[r0,#4]
        0x08000306:    6841        Ah      LDR      r1,[r0,#4]
        0x08000308:    f3c10181    ....    UBFX     r1,r1,#2,#2
        0x0800030c:    2902        .)      CMP      r1,#2
        0x0800030e:    d1fa        ..      BNE      0x8000306 ; SetSysClockTo72 + 154
        0x08000310:    bd0c        ..      POP      {r2,r3,pc}
    SetSysClock
        0x08000312:    e7ab        ..      B        SetSysClockTo72 ; 0x800026c
    SystemInit
        0x08000314:    b510        ..      PUSH     {r4,lr}
        0x08000316:    482a        *H      LDR      r0,[pc,#168] ; [0x80003c0] = 0x40021000
        0x08000318:    6801        .h      LDR      r1,[r0,#0]
        0x0800031a:    f0410101    A...    ORR      r1,r1,#1
        0x0800031e:    6001        .`      STR      r1,[r0,#0]
        0x08000320:    6841        Ah      LDR      r1,[r0,#4]
        0x08000322:    4a29        )J      LDR      r2,[pc,#164] ; [0x80003c8] = 0xf8ff0000
        0x08000324:    4011        .@      ANDS     r1,r1,r2
        0x08000326:    6041        A`      STR      r1,[r0,#4]
        0x08000328:    6801        .h      LDR      r1,[r0,#0]
        0x0800032a:    4a28        (J      LDR      r2,[pc,#160] ; [0x80003cc] = 0xfef6ffff
        0x0800032c:    4011        .@      ANDS     r1,r1,r2
        0x0800032e:    6001        .`      STR      r1,[r0,#0]
        0x08000330:    6801        .h      LDR      r1,[r0,#0]
        0x08000332:    f4212180    !..!    BIC      r1,r1,#0x40000
        0x08000336:    6001        .`      STR      r1,[r0,#0]
        0x08000338:    6841        Ah      LDR      r1,[r0,#4]
        0x0800033a:    f42101fe    !...    BIC      r1,r1,#0x7f0000
        0x0800033e:    6041        A`      STR      r1,[r0,#4]
        0x08000340:    f44f011f    O...    MOV      r1,#0x9f0000
        0x08000344:    6081        .`      STR      r1,[r0,#8]
        0x08000346:    f7ffffe4    ....    BL       SetSysClock ; 0x8000312
        0x0800034a:    4921        !I      LDR      r1,[pc,#132] ; [0x80003d0] = 0xe000ed08
        0x0800034c:    f04f6000    O..`    MOV      r0,#0x8000000
        0x08000350:    6008        .`      STR      r0,[r1,#0]
        0x08000352:    bd10        ..      POP      {r4,pc}
    SystemCoreClockUpdate
        0x08000354:    b510        ..      PUSH     {r4,lr}
        0x08000356:    4a1a        .J      LDR      r2,[pc,#104] ; [0x80003c0] = 0x40021000
        0x08000358:    6850        Ph      LDR      r0,[r2,#4]
        0x0800035a:    f000010c    ....    AND      r1,r0,#0xc
        0x0800035e:    4b1d        .K      LDR      r3,[pc,#116] ; [0x80003d4] = 0x7a1200
        0x08000360:    481d        .H      LDR      r0,[pc,#116] ; [0x80003d8] = 0x20000000
        0x08000362:    2900        .)      CMP      r1,#0
        0x08000364:    d00e        ..      BEQ      0x8000384 ; SystemCoreClockUpdate + 48
        0x08000366:    2904        .)      CMP      r1,#4
        0x08000368:    d00e        ..      BEQ      0x8000388 ; SystemCoreClockUpdate + 52
        0x0800036a:    2908        .)      CMP      r1,#8
        0x0800036c:    d00e        ..      BEQ      0x800038c ; SystemCoreClockUpdate + 56
        0x0800036e:    6003        .`      STR      r3,[r0,#0]
        0x08000370:    6851        Qh      LDR      r1,[r2,#4]
        0x08000372:    4a19        .J      LDR      r2,[pc,#100] ; [0x80003d8] = 0x20000000
        0x08000374:    f3c11103    ....    UBFX     r1,r1,#4,#4
        0x08000378:    1d12        ..      ADDS     r2,r2,#4
        0x0800037a:    5c51        Q\      LDRB     r1,[r2,r1]
        0x0800037c:    6802        .h      LDR      r2,[r0,#0]
        0x0800037e:    40ca        .@      LSRS     r2,r2,r1
        0x08000380:    6002        .`      STR      r2,[r0,#0]
        0x08000382:    bd10        ..      POP      {r4,pc}
        0x08000384:    6003        .`      STR      r3,[r0,#0]
        0x08000386:    e7f3        ..      B        0x8000370 ; SystemCoreClockUpdate + 28
        0x08000388:    6003        .`      STR      r3,[r0,#0]
        0x0800038a:    e7f1        ..      B        0x8000370 ; SystemCoreClockUpdate + 28
        0x0800038c:    6851        Qh      LDR      r1,[r2,#4]
        0x0800038e:    f4011170    ..p.    AND      r1,r1,#0x3c0000
        0x08000392:    6853        Sh      LDR      r3,[r2,#4]
        0x08000394:    f4033380    ...3    AND      r3,r3,#0x10000
        0x08000398:    2402        .$      MOVS     r4,#2
        0x0800039a:    eb044191    ...A    ADD      r1,r4,r1,LSR #18
        0x0800039e:    b133        3.      CBZ      r3,0x80003ae ; SystemCoreClockUpdate + 90
        0x080003a0:    6853        Sh      LDR      r3,[r2,#4]
        0x080003a2:    039b        ..      LSLS     r3,r3,#14
        0x080003a4:    d507        ..      BPL      0x80003b6 ; SystemCoreClockUpdate + 98
        0x080003a6:    4b0d        .K      LDR      r3,[pc,#52] ; [0x80003dc] = 0x3d0900
        0x080003a8:    4359        YC      MULS     r1,r3,r1
        0x080003aa:    6001        .`      STR      r1,[r0,#0]
        0x080003ac:    e7e0        ..      B        0x8000370 ; SystemCoreClockUpdate + 28
        0x080003ae:    4b0b        .K      LDR      r3,[pc,#44] ; [0x80003dc] = 0x3d0900
        0x080003b0:    4359        YC      MULS     r1,r3,r1
        0x080003b2:    6001        .`      STR      r1,[r0,#0]
        0x080003b4:    e7dc        ..      B        0x8000370 ; SystemCoreClockUpdate + 28
        0x080003b6:    4b07        .K      LDR      r3,[pc,#28] ; [0x80003d4] = 0x7a1200
        0x080003b8:    4359        YC      MULS     r1,r3,r1
        0x080003ba:    6001        .`      STR      r1,[r0,#0]
        0x080003bc:    e7d8        ..      B        0x8000370 ; SystemCoreClockUpdate + 28
    $d
        0x080003be:    0000        ..      DCW    0
        0x080003c0:    40021000    ...@    DCD    1073876992
        0x080003c4:    40022000    . .@    DCD    1073881088
        0x080003c8:    f8ff0000    ....    DCD    4177461248
        0x080003cc:    fef6ffff    ....    DCD    4277600255
        0x080003d0:    e000ed08    ....    DCD    3758157064
        0x080003d4:    007a1200    ..z.    DCD    8000000
        0x080003d8:    20000000    ...     DCD    536870912
        0x080003dc:    003d0900    ..=.    DCD    4000000
    $t
    .text
    Reset_Handler
        0x080003e0:    4806        .H      LDR      r0,[pc,#24] ; [0x80003fc] = 0x8000315
        0x080003e2:    4780        .G      BLX      r0
        0x080003e4:    4806        .H      LDR      r0,[pc,#24] ; [0x8000400] = 0x8000131
        0x080003e6:    4700        .G      BX       r0
    NMI_Handler
        0x080003e8:    e7fe        ..      B        NMI_Handler ; 0x80003e8
    HardFault_Handler
        0x080003ea:    e7fe        ..      B        HardFault_Handler ; 0x80003ea
    MemManage_Handler
        0x080003ec:    e7fe        ..      B        MemManage_Handler ; 0x80003ec
    BusFault_Handler
        0x080003ee:    e7fe        ..      B        BusFault_Handler ; 0x80003ee
    UsageFault_Handler
        0x080003f0:    e7fe        ..      B        UsageFault_Handler ; 0x80003f0
    SVC_Handler
        0x080003f2:    e7fe        ..      B        SVC_Handler ; 0x80003f2
    DebugMon_Handler
        0x080003f4:    e7fe        ..      B        DebugMon_Handler ; 0x80003f4
    PendSV_Handler
        0x080003f6:    e7fe        ..      B        PendSV_Handler ; 0x80003f6
    SysTick_Handler
        0x080003f8:    e7fe        ..      B        SysTick_Handler ; 0x80003f8
    ADC1_2_IRQHandler
    ADC3_IRQHandler
    CAN1_RX1_IRQHandler
    CAN1_SCE_IRQHandler
    DMA1_Channel1_IRQHandler
    DMA1_Channel2_IRQHandler
    DMA1_Channel3_IRQHandler
    DMA1_Channel4_IRQHandler
    DMA1_Channel5_IRQHandler
    DMA1_Channel6_IRQHandler
    DMA1_Channel7_IRQHandler
    DMA2_Channel1_IRQHandler
    DMA2_Channel2_IRQHandler
    DMA2_Channel3_IRQHandler
    DMA2_Channel4_5_IRQHandler
    EXTI0_IRQHandler
    EXTI15_10_IRQHandler
    EXTI1_IRQHandler
    EXTI2_IRQHandler
    EXTI3_IRQHandler
    EXTI4_IRQHandler
    EXTI9_5_IRQHandler
    FLASH_IRQHandler
    FSMC_IRQHandler
    I2C1_ER_IRQHandler
    I2C1_EV_IRQHandler
    I2C2_ER_IRQHandler
    I2C2_EV_IRQHandler
    PVD_IRQHandler
    RCC_IRQHandler
    RTCAlarm_IRQHandler
    RTC_IRQHandler
    SDIO_IRQHandler
    SPI1_IRQHandler
    SPI2_IRQHandler
    SPI3_IRQHandler
    TAMPER_IRQHandler
    TIM1_BRK_IRQHandler
    TIM1_CC_IRQHandler
    TIM1_TRG_COM_IRQHandler
    TIM1_UP_IRQHandler
    TIM2_IRQHandler
    TIM3_IRQHandler
    TIM4_IRQHandler
    TIM5_IRQHandler
    TIM6_IRQHandler
    TIM7_IRQHandler
    TIM8_BRK_IRQHandler
    TIM8_CC_IRQHandler
    TIM8_TRG_COM_IRQHandler
    TIM8_UP_IRQHandler
    UART4_IRQHandler
    UART5_IRQHandler
    USART1_IRQHandler
    USART2_IRQHandler
    USART3_IRQHandler
    USBWakeUp_IRQHandler
    USB_HP_CAN1_TX_IRQHandler
    USB_LP_CAN1_RX0_IRQHandler
    WWDG_IRQHandler
        0x080003fa:    e7fe        ..      B        ADC1_2_IRQHandler ; 0x80003fa
    $d
        0x080003fc:    08000315    ....    DCD    134218517
        0x08000400:    08000131    1...    DCD    134218033
    $t
    .text
    GPIO_DeInit
        0x08000404:    b510        ..      PUSH     {r4,lr}
        0x08000406:    499c        .I      LDR      r1,[pc,#624] ; [0x8000678] = 0x40010800
        0x08000408:    4288        .B      CMP      r0,r1
        0x0800040a:    d109        ..      BNE      0x8000420 ; GPIO_DeInit + 28
        0x0800040c:    2101        .!      MOVS     r1,#1
        0x0800040e:    2004        .       MOVS     r0,#4
        0x08000410:    f000fa7d    ..}.    BL       RCC_APB2PeriphResetCmd ; 0x800090e
        0x08000414:    2100        .!      MOVS     r1,#0
        0x08000416:    e8bd4010    ...@    POP      {r4,lr}
        0x0800041a:    2004        .       MOVS     r0,#4
        0x0800041c:    f000ba77    ..w.    B.W      RCC_APB2PeriphResetCmd ; 0x800090e
        0x08000420:    4996        .I      LDR      r1,[pc,#600] ; [0x800067c] = 0x40010c00
        0x08000422:    4288        .B      CMP      r0,r1
        0x08000424:    d109        ..      BNE      0x800043a ; GPIO_DeInit + 54
        0x08000426:    2101        .!      MOVS     r1,#1
        0x08000428:    2008        .       MOVS     r0,#8
        0x0800042a:    f000fa70    ..p.    BL       RCC_APB2PeriphResetCmd ; 0x800090e
        0x0800042e:    2100        .!      MOVS     r1,#0
        0x08000430:    e8bd4010    ...@    POP      {r4,lr}
        0x08000434:    2008        .       MOVS     r0,#8
        0x08000436:    f000ba6a    ..j.    B.W      RCC_APB2PeriphResetCmd ; 0x800090e
        0x0800043a:    4991        .I      LDR      r1,[pc,#580] ; [0x8000680] = 0x40011000
        0x0800043c:    4288        .B      CMP      r0,r1
        0x0800043e:    d109        ..      BNE      0x8000454 ; GPIO_DeInit + 80
        0x08000440:    2101        .!      MOVS     r1,#1
        0x08000442:    2010        .       MOVS     r0,#0x10
        0x08000444:    f000fa63    ..c.    BL       RCC_APB2PeriphResetCmd ; 0x800090e
        0x08000448:    2100        .!      MOVS     r1,#0
        0x0800044a:    e8bd4010    ...@    POP      {r4,lr}
        0x0800044e:    2010        .       MOVS     r0,#0x10
        0x08000450:    f000ba5d    ..].    B.W      RCC_APB2PeriphResetCmd ; 0x800090e
        0x08000454:    498b        .I      LDR      r1,[pc,#556] ; [0x8000684] = 0x40011400
        0x08000456:    4288        .B      CMP      r0,r1
        0x08000458:    d109        ..      BNE      0x800046e ; GPIO_DeInit + 106
        0x0800045a:    2101        .!      MOVS     r1,#1
        0x0800045c:    2020                MOVS     r0,#0x20
        0x0800045e:    f000fa56    ..V.    BL       RCC_APB2PeriphResetCmd ; 0x800090e
        0x08000462:    2100        .!      MOVS     r1,#0
        0x08000464:    e8bd4010    ...@    POP      {r4,lr}
        0x08000468:    2020                MOVS     r0,#0x20
        0x0800046a:    f000ba50    ..P.    B.W      RCC_APB2PeriphResetCmd ; 0x800090e
        0x0800046e:    4986        .I      LDR      r1,[pc,#536] ; [0x8000688] = 0x40011800
        0x08000470:    4288        .B      CMP      r0,r1
        0x08000472:    d109        ..      BNE      0x8000488 ; GPIO_DeInit + 132
        0x08000474:    2101        .!      MOVS     r1,#1
        0x08000476:    2040        @       MOVS     r0,#0x40
        0x08000478:    f000fa49    ..I.    BL       RCC_APB2PeriphResetCmd ; 0x800090e
        0x0800047c:    2100        .!      MOVS     r1,#0
        0x0800047e:    e8bd4010    ...@    POP      {r4,lr}
        0x08000482:    2040        @       MOVS     r0,#0x40
        0x08000484:    f000ba43    ..C.    B.W      RCC_APB2PeriphResetCmd ; 0x800090e
        0x08000488:    4980        .I      LDR      r1,[pc,#512] ; [0x800068c] = 0x40011c00
        0x0800048a:    4288        .B      CMP      r0,r1
        0x0800048c:    d109        ..      BNE      0x80004a2 ; GPIO_DeInit + 158
        0x0800048e:    2101        .!      MOVS     r1,#1
        0x08000490:    2080        .       MOVS     r0,#0x80
        0x08000492:    f000fa3c    ..<.    BL       RCC_APB2PeriphResetCmd ; 0x800090e
        0x08000496:    2100        .!      MOVS     r1,#0
        0x08000498:    e8bd4010    ...@    POP      {r4,lr}
        0x0800049c:    2080        .       MOVS     r0,#0x80
        0x0800049e:    f000ba36    ..6.    B.W      RCC_APB2PeriphResetCmd ; 0x800090e
        0x080004a2:    497b        {I      LDR      r1,[pc,#492] ; [0x8000690] = 0x40012000
        0x080004a4:    4288        .B      CMP      r0,r1
        0x080004a6:    d10a        ..      BNE      0x80004be ; GPIO_DeInit + 186
        0x080004a8:    1584        ..      ASRS     r4,r0,#22
        0x080004aa:    2101        .!      MOVS     r1,#1
        0x080004ac:    4620         F      MOV      r0,r4
        0x080004ae:    f000fa2e    ....    BL       RCC_APB2PeriphResetCmd ; 0x800090e
        0x080004b2:    4620         F      MOV      r0,r4
        0x080004b4:    e8bd4010    ...@    POP      {r4,lr}
        0x080004b8:    2100        .!      MOVS     r1,#0
        0x080004ba:    f000ba28    ..(.    B.W      RCC_APB2PeriphResetCmd ; 0x800090e
        0x080004be:    bd10        ..      POP      {r4,pc}
    GPIO_AFIODeInit
        0x080004c0:    b510        ..      PUSH     {r4,lr}
        0x080004c2:    2101        .!      MOVS     r1,#1
        0x080004c4:    4608        .F      MOV      r0,r1
        0x080004c6:    f000fa22    ..".    BL       RCC_APB2PeriphResetCmd ; 0x800090e
        0x080004ca:    2100        .!      MOVS     r1,#0
        0x080004cc:    e8bd4010    ...@    POP      {r4,lr}
        0x080004d0:    2001        .       MOVS     r0,#1
        0x080004d2:    f000ba1c    ....    B.W      RCC_APB2PeriphResetCmd ; 0x800090e
    GPIO_Init
        0x080004d6:    e92d41f0    -..A    PUSH     {r4-r8,lr}
        0x080004da:    2200        ."      MOVS     r2,#0
        0x080004dc:    78cc        .x      LDRB     r4,[r1,#3]
        0x080004de:    f004030f    ....    AND      r3,r4,#0xf
        0x080004e2:    06e4        ..      LSLS     r4,r4,#27
        0x080004e4:    d501        ..      BPL      0x80004ea ; GPIO_Init + 20
        0x080004e6:    788c        .x      LDRB     r4,[r1,#2]
        0x080004e8:    4323        #C      ORRS     r3,r3,r4
        0x080004ea:    780c        .x      LDRB     r4,[r1,#0]
        0x080004ec:    f04f070f    O...    MOV      r7,#0xf
        0x080004f0:    f0140fff    ....    TST      r4,#0xff
        0x080004f4:    f04f0c01    O...    MOV      r12,#1
        0x080004f8:    d01c        ..      BEQ      0x8000534 ; GPIO_Init + 94
        0x080004fa:    6805        .h      LDR      r5,[r0,#0]
        0x080004fc:    fa0cf402    ....    LSL      r4,r12,r2
        0x08000500:    880e        ..      LDRH     r6,[r1,#0]
        0x08000502:    4026        &@      ANDS     r6,r6,r4
        0x08000504:    42a6        .B      CMP      r6,r4
        0x08000506:    d111        ..      BNE      0x800052c ; GPIO_Init + 86
        0x08000508:    0096        ..      LSLS     r6,r2,#2
        0x0800050a:    fa07f806    ....    LSL      r8,r7,r6
        0x0800050e:    ea250508    %...    BIC      r5,r5,r8
        0x08000512:    fa03f806    ....    LSL      r8,r3,r6
        0x08000516:    ea480505    H...    ORR      r5,r8,r5
        0x0800051a:    78ce        .x      LDRB     r6,[r1,#3]
        0x0800051c:    2e28        (.      CMP      r6,#0x28
        0x0800051e:    d002        ..      BEQ      0x8000526 ; GPIO_Init + 80
        0x08000520:    2e48        H.      CMP      r6,#0x48
        0x08000522:    d002        ..      BEQ      0x800052a ; GPIO_Init + 84
        0x08000524:    e002        ..      B        0x800052c ; GPIO_Init + 86
        0x08000526:    6144        Da      STR      r4,[r0,#0x14]
        0x08000528:    e000        ..      B        0x800052c ; GPIO_Init + 86
        0x0800052a:    6104        .a      STR      r4,[r0,#0x10]
        0x0800052c:    1c52        R.      ADDS     r2,r2,#1
        0x0800052e:    2a08        .*      CMP      r2,#8
        0x08000530:    d3e4        ..      BCC      0x80004fc ; GPIO_Init + 38
        0x08000532:    6005        .`      STR      r5,[r0,#0]
        0x08000534:    880a        ..      LDRH     r2,[r1,#0]
        0x08000536:    2aff        .*      CMP      r2,#0xff
        0x08000538:    d91e        ..      BLS      0x8000578 ; GPIO_Init + 162
        0x0800053a:    6845        Eh      LDR      r5,[r0,#4]
        0x0800053c:    2200        ."      MOVS     r2,#0
        0x0800053e:    f1020608    ....    ADD      r6,r2,#8
        0x08000542:    fa0cf406    ....    LSL      r4,r12,r6
        0x08000546:    880e        ..      LDRH     r6,[r1,#0]
        0x08000548:    4026        &@      ANDS     r6,r6,r4
        0x0800054a:    42a6        .B      CMP      r6,r4
        0x0800054c:    d110        ..      BNE      0x8000570 ; GPIO_Init + 154
        0x0800054e:    0096        ..      LSLS     r6,r2,#2
        0x08000550:    fa07f806    ....    LSL      r8,r7,r6
        0x08000554:    ea250508    %...    BIC      r5,r5,r8
        0x08000558:    fa03f806    ....    LSL      r8,r3,r6
        0x0800055c:    ea480505    H...    ORR      r5,r8,r5
        0x08000560:    78ce        .x      LDRB     r6,[r1,#3]
        0x08000562:    2e28        (.      CMP      r6,#0x28
        0x08000564:    d100        ..      BNE      0x8000568 ; GPIO_Init + 146
        0x08000566:    6144        Da      STR      r4,[r0,#0x14]
        0x08000568:    78ce        .x      LDRB     r6,[r1,#3]
        0x0800056a:    2e48        H.      CMP      r6,#0x48
        0x0800056c:    d100        ..      BNE      0x8000570 ; GPIO_Init + 154
        0x0800056e:    6104        .a      STR      r4,[r0,#0x10]
        0x08000570:    1c52        R.      ADDS     r2,r2,#1
        0x08000572:    2a08        .*      CMP      r2,#8
        0x08000574:    d3e3        ..      BCC      0x800053e ; GPIO_Init + 104
        0x08000576:    6045        E`      STR      r5,[r0,#4]
        0x08000578:    e8bd81f0    ....    POP      {r4-r8,pc}
    GPIO_StructInit
        0x0800057c:    f64f71ff    O..q    MOV      r1,#0xffff
        0x08000580:    8001        ..      STRH     r1,[r0,#0]
        0x08000582:    2102        .!      MOVS     r1,#2
        0x08000584:    7081        .p      STRB     r1,[r0,#2]
        0x08000586:    2104        .!      MOVS     r1,#4
        0x08000588:    70c1        .p      STRB     r1,[r0,#3]
        0x0800058a:    4770        pG      BX       lr
    GPIO_ReadInputDataBit
        0x0800058c:    4602        .F      MOV      r2,r0
        0x0800058e:    2000        .       MOVS     r0,#0
        0x08000590:    6892        .h      LDR      r2,[r2,#8]
        0x08000592:    420a        .B      TST      r2,r1
        0x08000594:    d000        ..      BEQ      0x8000598 ; GPIO_ReadInputDataBit + 12
        0x08000596:    2001        .       MOVS     r0,#1
        0x08000598:    4770        pG      BX       lr
    GPIO_ReadInputData
        0x0800059a:    6880        .h      LDR      r0,[r0,#8]
        0x0800059c:    b280        ..      UXTH     r0,r0
        0x0800059e:    4770        pG      BX       lr
    GPIO_ReadOutputDataBit
        0x080005a0:    4602        .F      MOV      r2,r0
        0x080005a2:    2000        .       MOVS     r0,#0
        0x080005a4:    68d2        .h      LDR      r2,[r2,#0xc]
        0x080005a6:    420a        .B      TST      r2,r1
        0x080005a8:    d000        ..      BEQ      0x80005ac ; GPIO_ReadOutputDataBit + 12
        0x080005aa:    2001        .       MOVS     r0,#1
        0x080005ac:    4770        pG      BX       lr
    GPIO_ReadOutputData
        0x080005ae:    68c0        .h      LDR      r0,[r0,#0xc]
        0x080005b0:    b280        ..      UXTH     r0,r0
        0x080005b2:    4770        pG      BX       lr
    GPIO_SetBits
        0x080005b4:    6101        .a      STR      r1,[r0,#0x10]
        0x080005b6:    4770        pG      BX       lr
    GPIO_ResetBits
        0x080005b8:    6141        Aa      STR      r1,[r0,#0x14]
        0x080005ba:    4770        pG      BX       lr
    GPIO_WriteBit
        0x080005bc:    2a00        .*      CMP      r2,#0
        0x080005be:    d001        ..      BEQ      0x80005c4 ; GPIO_WriteBit + 8
        0x080005c0:    6101        .a      STR      r1,[r0,#0x10]
        0x080005c2:    4770        pG      BX       lr
        0x080005c4:    6141        Aa      STR      r1,[r0,#0x14]
        0x080005c6:    4770        pG      BX       lr
    GPIO_Write
        0x080005c8:    60c1        .`      STR      r1,[r0,#0xc]
        0x080005ca:    4770        pG      BX       lr
    GPIO_PinLockConfig
        0x080005cc:    f4413280    A..2    ORR      r2,r1,#0x10000
        0x080005d0:    6182        .a      STR      r2,[r0,#0x18]
        0x080005d2:    6181        .a      STR      r1,[r0,#0x18]
        0x080005d4:    6182        .a      STR      r2,[r0,#0x18]
        0x080005d6:    6981        .i      LDR      r1,[r0,#0x18]
        0x080005d8:    6980        .i      LDR      r0,[r0,#0x18]
        0x080005da:    4770        pG      BX       lr
    GPIO_EventOutputConfig
        0x080005dc:    b510        ..      PUSH     {r4,lr}
        0x080005de:    4b2d        -K      LDR      r3,[pc,#180] ; [0x8000694] = 0x40010000
        0x080005e0:    681a        .h      LDR      r2,[r3,#0]
        0x080005e2:    f64f7480    O..t    MOV      r4,#0xff80
        0x080005e6:    4022        "@      ANDS     r2,r2,r4
        0x080005e8:    ea421000    B...    ORR      r0,r2,r0,LSL #4
        0x080005ec:    4308        .C      ORRS     r0,r0,r1
        0x080005ee:    6018        .`      STR      r0,[r3,#0]
        0x080005f0:    bd10        ..      POP      {r4,pc}
    GPIO_EventOutputCmd
        0x080005f2:    4929        )I      LDR      r1,[pc,#164] ; [0x8000698] = 0x42200000
        0x080005f4:    61c8        .a      STR      r0,[r1,#0x1c]
        0x080005f6:    4770        pG      BX       lr
    GPIO_PinRemapConfig
        0x080005f8:    b5f0        ..      PUSH     {r4-r7,lr}
        0x080005fa:    4c26        &L      LDR      r4,[pc,#152] ; [0x8000694] = 0x40010000
        0x080005fc:    2800        .(      CMP      r0,#0
        0x080005fe:    da01        ..      BGE      0x8000604 ; GPIO_PinRemapConfig + 12
        0x08000600:    69e3        .i      LDR      r3,[r4,#0x1c]
        0x08000602:    e000        ..      B        0x8000606 ; GPIO_PinRemapConfig + 14
        0x08000604:    6863        ch      LDR      r3,[r4,#4]
        0x08000606:    f3c04603    ...F    UBFX     r6,r0,#16,#4
        0x0800060a:    0d42        B.      LSRS     r2,r0,#21
        0x0800060c:    0112        ..      LSLS     r2,r2,#4
        0x0800060e:    b285        ..      UXTH     r5,r0
        0x08000610:    f3c05701    ...W    UBFX     r7,r0,#20,#2
        0x08000614:    4095        .@      LSLS     r5,r5,r2
        0x08000616:    2f03        ./      CMP      r7,#3
        0x08000618:    d007        ..      BEQ      0x800062a ; GPIO_PinRemapConfig + 50
        0x0800061a:    02c2        ..      LSLS     r2,r0,#11
        0x0800061c:    d50c        ..      BPL      0x8000638 ; GPIO_PinRemapConfig + 64
        0x0800061e:    2203        ."      MOVS     r2,#3
        0x08000620:    40b2        .@      LSLS     r2,r2,r6
        0x08000622:    4393        .C      BICS     r3,r3,r2
        0x08000624:    f0436270    C.pb    ORR      r2,r3,#0xf000000
        0x08000628:    e009        ..      B        0x800063e ; GPIO_PinRemapConfig + 70
        0x0800062a:    f0236270    #.pb    BIC      r2,r3,#0xf000000
        0x0800062e:    6863        ch      LDR      r3,[r4,#4]
        0x08000630:    f0236370    #.pc    BIC      r3,r3,#0xf000000
        0x08000634:    6063        c`      STR      r3,[r4,#4]
        0x08000636:    e002        ..      B        0x800063e ; GPIO_PinRemapConfig + 70
        0x08000638:    43ab        .C      BICS     r3,r3,r5
        0x0800063a:    f0436270    C.pb    ORR      r2,r3,#0xf000000
        0x0800063e:    b101        ..      CBZ      r1,0x8000642 ; GPIO_PinRemapConfig + 74
        0x08000640:    432a        *C      ORRS     r2,r2,r5
        0x08000642:    2800        .(      CMP      r0,#0
        0x08000644:    da01        ..      BGE      0x800064a ; GPIO_PinRemapConfig + 82
        0x08000646:    61e2        .a      STR      r2,[r4,#0x1c]
        0x08000648:    bdf0        ..      POP      {r4-r7,pc}
        0x0800064a:    6062        b`      STR      r2,[r4,#4]
        0x0800064c:    bdf0        ..      POP      {r4-r7,pc}
    GPIO_EXTILineConfig
        0x0800064e:    b510        ..      PUSH     {r4,lr}
        0x08000650:    078a        ..      LSLS     r2,r1,#30
        0x08000652:    0f12        ..      LSRS     r2,r2,#28
        0x08000654:    230f        .#      MOVS     r3,#0xf
        0x08000656:    4093        .@      LSLS     r3,r3,r2
        0x08000658:    f0210403    !...    BIC      r4,r1,#3
        0x0800065c:    490d        .I      LDR      r1,[pc,#52] ; [0x8000694] = 0x40010000
        0x0800065e:    4421        !D      ADD      r1,r1,r4
        0x08000660:    688c        .h      LDR      r4,[r1,#8]
        0x08000662:    439c        .C      BICS     r4,r4,r3
        0x08000664:    608c        .`      STR      r4,[r1,#8]
        0x08000666:    688b        .h      LDR      r3,[r1,#8]
        0x08000668:    4090        .@      LSLS     r0,r0,r2
        0x0800066a:    4303        .C      ORRS     r3,r3,r0
        0x0800066c:    608b        .`      STR      r3,[r1,#8]
        0x0800066e:    bd10        ..      POP      {r4,pc}
    GPIO_ETH_MediaInterfaceConfig
        0x08000670:    4909        .I      LDR      r1,[pc,#36] ; [0x8000698] = 0x42200000
        0x08000672:    31dc        .1      ADDS     r1,r1,#0xdc
        0x08000674:    6008        .`      STR      r0,[r1,#0]
        0x08000676:    4770        pG      BX       lr
    $d
        0x08000678:    40010800    ...@    DCD    1073809408
        0x0800067c:    40010c00    ...@    DCD    1073810432
        0x08000680:    40011000    ...@    DCD    1073811456
        0x08000684:    40011400    ...@    DCD    1073812480
        0x08000688:    40011800    ...@    DCD    1073813504
        0x0800068c:    40011c00    ...@    DCD    1073814528
        0x08000690:    40012000    . .@    DCD    1073815552
        0x08000694:    40010000    ...@    DCD    1073807360
        0x08000698:    42200000    .. B    DCD    1109393408
    $t
    .text
    RCC_DeInit
        0x0800069c:    48b4        .H      LDR      r0,[pc,#720] ; [0x8000970] = 0x40021000
        0x0800069e:    6801        .h      LDR      r1,[r0,#0]
        0x080006a0:    f0410101    A...    ORR      r1,r1,#1
        0x080006a4:    6001        .`      STR      r1,[r0,#0]
        0x080006a6:    6841        Ah      LDR      r1,[r0,#4]
        0x080006a8:    4ab2        .J      LDR      r2,[pc,#712] ; [0x8000974] = 0xf8ff0000
        0x080006aa:    4011        .@      ANDS     r1,r1,r2
        0x080006ac:    6041        A`      STR      r1,[r0,#4]
        0x080006ae:    6801        .h      LDR      r1,[r0,#0]
        0x080006b0:    4ab1        .J      LDR      r2,[pc,#708] ; [0x8000978] = 0xfef6ffff
        0x080006b2:    4011        .@      ANDS     r1,r1,r2
        0x080006b4:    6001        .`      STR      r1,[r0,#0]
        0x080006b6:    6801        .h      LDR      r1,[r0,#0]
        0x080006b8:    f4212180    !..!    BIC      r1,r1,#0x40000
        0x080006bc:    6001        .`      STR      r1,[r0,#0]
        0x080006be:    6841        Ah      LDR      r1,[r0,#4]
        0x080006c0:    f42101fe    !...    BIC      r1,r1,#0x7f0000
        0x080006c4:    6041        A`      STR      r1,[r0,#4]
        0x080006c6:    f44f011f    O...    MOV      r1,#0x9f0000
        0x080006ca:    6081        .`      STR      r1,[r0,#8]
        0x080006cc:    4770        pG      BX       lr
    RCC_HSEConfig
        0x080006ce:    49a8        .I      LDR      r1,[pc,#672] ; [0x8000970] = 0x40021000
        0x080006d0:    680a        .h      LDR      r2,[r1,#0]
        0x080006d2:    f4223280    "..2    BIC      r2,r2,#0x10000
        0x080006d6:    600a        .`      STR      r2,[r1,#0]
        0x080006d8:    680a        .h      LDR      r2,[r1,#0]
        0x080006da:    f4222280    ".."    BIC      r2,r2,#0x40000
        0x080006de:    600a        .`      STR      r2,[r1,#0]
        0x080006e0:    f5b03f80    ...?    CMP      r0,#0x10000
        0x080006e4:    d007        ..      BEQ      0x80006f6 ; RCC_HSEConfig + 40
        0x080006e6:    f5b02f80    .../    CMP      r0,#0x40000
        0x080006ea:    d103        ..      BNE      0x80006f4 ; RCC_HSEConfig + 38
        0x080006ec:    6808        .h      LDR      r0,[r1,#0]
        0x080006ee:    f44020a0    @..     ORR      r0,r0,#0x50000
        0x080006f2:    6008        .`      STR      r0,[r1,#0]
        0x080006f4:    4770        pG      BX       lr
        0x080006f6:    6808        .h      LDR      r0,[r1,#0]
        0x080006f8:    f4403080    @..0    ORR      r0,r0,#0x10000
        0x080006fc:    6008        .`      STR      r0,[r1,#0]
        0x080006fe:    4770        pG      BX       lr
    RCC_GetFlagStatus
        0x08000700:    4603        .F      MOV      r3,r0
        0x08000702:    2000        .       MOVS     r0,#0
        0x08000704:    0959        Y.      LSRS     r1,r3,#5
        0x08000706:    4a9a        .J      LDR      r2,[pc,#616] ; [0x8000970] = 0x40021000
        0x08000708:    2901        .)      CMP      r1,#1
        0x0800070a:    d00a        ..      BEQ      0x8000722 ; RCC_GetFlagStatus + 34
        0x0800070c:    2902        .)      CMP      r1,#2
        0x0800070e:    d00a        ..      BEQ      0x8000726 ; RCC_GetFlagStatus + 38
        0x08000710:    6a51        Qj      LDR      r1,[r2,#0x24]
        0x08000712:    f003021f    ....    AND      r2,r3,#0x1f
        0x08000716:    2301        .#      MOVS     r3,#1
        0x08000718:    4093        .@      LSLS     r3,r3,r2
        0x0800071a:    420b        .B      TST      r3,r1
        0x0800071c:    d000        ..      BEQ      0x8000720 ; RCC_GetFlagStatus + 32
        0x0800071e:    2001        .       MOVS     r0,#1
        0x08000720:    4770        pG      BX       lr
        0x08000722:    6811        .h      LDR      r1,[r2,#0]
        0x08000724:    e7f5        ..      B        0x8000712 ; RCC_GetFlagStatus + 18
        0x08000726:    6a11        .j      LDR      r1,[r2,#0x20]
        0x08000728:    e7f3        ..      B        0x8000712 ; RCC_GetFlagStatus + 18
    RCC_WaitForHSEStartUp
        0x0800072a:    b518        ..      PUSH     {r3,r4,lr}
        0x0800072c:    2000        .       MOVS     r0,#0
        0x0800072e:    9000        ..      STR      r0,[sp,#0]
        0x08000730:    f44f64a0    O..d    MOV      r4,#0x500
        0x08000734:    2031        1       MOVS     r0,#0x31
        0x08000736:    f7ffffe3    ....    BL       RCC_GetFlagStatus ; 0x8000700
        0x0800073a:    9900        ..      LDR      r1,[sp,#0]
        0x0800073c:    1c49        I.      ADDS     r1,r1,#1
        0x0800073e:    9100        ..      STR      r1,[sp,#0]
        0x08000740:    9900        ..      LDR      r1,[sp,#0]
        0x08000742:    42a1        .B      CMP      r1,r4
        0x08000744:    d001        ..      BEQ      0x800074a ; RCC_WaitForHSEStartUp + 32
        0x08000746:    2800        .(      CMP      r0,#0
        0x08000748:    d0f4        ..      BEQ      0x8000734 ; RCC_WaitForHSEStartUp + 10
        0x0800074a:    2031        1       MOVS     r0,#0x31
        0x0800074c:    f7ffffd8    ....    BL       RCC_GetFlagStatus ; 0x8000700
        0x08000750:    b108        ..      CBZ      r0,0x8000756 ; RCC_WaitForHSEStartUp + 44
        0x08000752:    2001        .       MOVS     r0,#1
        0x08000754:    bd18        ..      POP      {r3,r4,pc}
        0x08000756:    2000        .       MOVS     r0,#0
        0x08000758:    bd18        ..      POP      {r3,r4,pc}
    RCC_AdjustHSICalibrationValue
        0x0800075a:    4a85        .J      LDR      r2,[pc,#532] ; [0x8000970] = 0x40021000
        0x0800075c:    6811        .h      LDR      r1,[r2,#0]
        0x0800075e:    f02101f8    !...    BIC      r1,r1,#0xf8
        0x08000762:    ea4100c0    A...    ORR      r0,r1,r0,LSL #3
        0x08000766:    6010        .`      STR      r0,[r2,#0]
        0x08000768:    4770        pG      BX       lr
    RCC_HSICmd
        0x0800076a:    4984        .I      LDR      r1,[pc,#528] ; [0x800097c] = 0x42420000
        0x0800076c:    6008        .`      STR      r0,[r1,#0]
        0x0800076e:    4770        pG      BX       lr
    RCC_PLLConfig
        0x08000770:    4b7f        .K      LDR      r3,[pc,#508] ; [0x8000970] = 0x40021000
        0x08000772:    685a        Zh      LDR      r2,[r3,#4]
        0x08000774:    f422127c    ".|.    BIC      r2,r2,#0x3f0000
        0x08000778:    4308        .C      ORRS     r0,r0,r1
        0x0800077a:    4310        .C      ORRS     r0,r0,r2
        0x0800077c:    6058        X`      STR      r0,[r3,#4]
        0x0800077e:    4770        pG      BX       lr
    RCC_PLLCmd
        0x08000780:    497e        ~I      LDR      r1,[pc,#504] ; [0x800097c] = 0x42420000
        0x08000782:    6608        .f      STR      r0,[r1,#0x60]
        0x08000784:    4770        pG      BX       lr
    RCC_SYSCLKConfig
        0x08000786:    4a7a        zJ      LDR      r2,[pc,#488] ; [0x8000970] = 0x40021000
        0x08000788:    6851        Qh      LDR      r1,[r2,#4]
        0x0800078a:    f0210103    !...    BIC      r1,r1,#3
        0x0800078e:    4301        .C      ORRS     r1,r1,r0
        0x08000790:    6051        Q`      STR      r1,[r2,#4]
        0x08000792:    4770        pG      BX       lr
    RCC_GetSYSCLKSource
        0x08000794:    4876        vH      LDR      r0,[pc,#472] ; [0x8000970] = 0x40021000
        0x08000796:    6840        @h      LDR      r0,[r0,#4]
        0x08000798:    f000000c    ....    AND      r0,r0,#0xc
        0x0800079c:    4770        pG      BX       lr
    RCC_HCLKConfig
        0x0800079e:    4a74        tJ      LDR      r2,[pc,#464] ; [0x8000970] = 0x40021000
        0x080007a0:    6851        Qh      LDR      r1,[r2,#4]
        0x080007a2:    f02101f0    !...    BIC      r1,r1,#0xf0
        0x080007a6:    4301        .C      ORRS     r1,r1,r0
        0x080007a8:    6051        Q`      STR      r1,[r2,#4]
        0x080007aa:    4770        pG      BX       lr
    RCC_PCLK1Config
        0x080007ac:    4a70        pJ      LDR      r2,[pc,#448] ; [0x8000970] = 0x40021000
        0x080007ae:    6851        Qh      LDR      r1,[r2,#4]
        0x080007b0:    f42161e0    !..a    BIC      r1,r1,#0x700
        0x080007b4:    4301        .C      ORRS     r1,r1,r0
        0x080007b6:    6051        Q`      STR      r1,[r2,#4]
        0x080007b8:    4770        pG      BX       lr
    RCC_PCLK2Config
        0x080007ba:    4a6d        mJ      LDR      r2,[pc,#436] ; [0x8000970] = 0x40021000
        0x080007bc:    6851        Qh      LDR      r1,[r2,#4]
        0x080007be:    f4215160    !.`Q    BIC      r1,r1,#0x3800
        0x080007c2:    ea4100c0    A...    ORR      r0,r1,r0,LSL #3
        0x080007c6:    6050        P`      STR      r0,[r2,#4]
        0x080007c8:    4770        pG      BX       lr
    RCC_ITConfig
        0x080007ca:    4a69        iJ      LDR      r2,[pc,#420] ; [0x8000970] = 0x40021000
        0x080007cc:    2900        .)      CMP      r1,#0
        0x080007ce:    d003        ..      BEQ      0x80007d8 ; RCC_ITConfig + 14
        0x080007d0:    7a51        Qz      LDRB     r1,[r2,#9]
        0x080007d2:    4301        .C      ORRS     r1,r1,r0
        0x080007d4:    7251        Qr      STRB     r1,[r2,#9]
        0x080007d6:    4770        pG      BX       lr
        0x080007d8:    7a51        Qz      LDRB     r1,[r2,#9]
        0x080007da:    4381        .C      BICS     r1,r1,r0
        0x080007dc:    7251        Qr      STRB     r1,[r2,#9]
        0x080007de:    4770        pG      BX       lr
    RCC_USBCLKConfig
        0x080007e0:    4966        fI      LDR      r1,[pc,#408] ; [0x800097c] = 0x42420000
        0x080007e2:    31d8        .1      ADDS     r1,r1,#0xd8
        0x080007e4:    6008        .`      STR      r0,[r1,#0]
        0x080007e6:    4770        pG      BX       lr
    RCC_ADCCLKConfig
        0x080007e8:    4a61        aJ      LDR      r2,[pc,#388] ; [0x8000970] = 0x40021000
        0x080007ea:    6851        Qh      LDR      r1,[r2,#4]
        0x080007ec:    f4214140    !.@A    BIC      r1,r1,#0xc000
        0x080007f0:    4301        .C      ORRS     r1,r1,r0
        0x080007f2:    6051        Q`      STR      r1,[r2,#4]
        0x080007f4:    4770        pG      BX       lr
    RCC_LSEConfig
        0x080007f6:    495e        ^I      LDR      r1,[pc,#376] ; [0x8000970] = 0x40021000
        0x080007f8:    2200        ."      MOVS     r2,#0
        0x080007fa:    3120         1      ADDS     r1,r1,#0x20
        0x080007fc:    700a        .p      STRB     r2,[r1,#0]
        0x080007fe:    f8012920    .. )    STRB     r2,[r1],#-0x20
        0x08000802:    2801        .(      CMP      r0,#1
        0x08000804:    d005        ..      BEQ      0x8000812 ; RCC_LSEConfig + 28
        0x08000806:    2804        .(      CMP      r0,#4
        0x08000808:    d102        ..      BNE      0x8000810 ; RCC_LSEConfig + 26
        0x0800080a:    2005        .       MOVS     r0,#5
        0x0800080c:    f8810020    .. .    STRB     r0,[r1,#0x20]
        0x08000810:    4770        pG      BX       lr
        0x08000812:    2001        .       MOVS     r0,#1
        0x08000814:    f8810020    .. .    STRB     r0,[r1,#0x20]
        0x08000818:    4770        pG      BX       lr
    RCC_LSICmd
        0x0800081a:    4959        YI      LDR      r1,[pc,#356] ; [0x8000980] = 0x42420480
        0x0800081c:    6008        .`      STR      r0,[r1,#0]
        0x0800081e:    4770        pG      BX       lr
    RCC_RTCCLKConfig
        0x08000820:    4953        SI      LDR      r1,[pc,#332] ; [0x8000970] = 0x40021000
        0x08000822:    6a0a        .j      LDR      r2,[r1,#0x20]
        0x08000824:    4302        .C      ORRS     r2,r2,r0
        0x08000826:    620a        .b      STR      r2,[r1,#0x20]
        0x08000828:    4770        pG      BX       lr
    RCC_RTCCLKCmd
        0x0800082a:    4955        UI      LDR      r1,[pc,#340] ; [0x8000980] = 0x42420480
        0x0800082c:    3944        D9      SUBS     r1,r1,#0x44
        0x0800082e:    6008        .`      STR      r0,[r1,#0]
        0x08000830:    4770        pG      BX       lr
    RCC_GetClocksFreq
        0x08000832:    b510        ..      PUSH     {r4,lr}
        0x08000834:    4a4e        NJ      LDR      r2,[pc,#312] ; [0x8000970] = 0x40021000
        0x08000836:    6851        Qh      LDR      r1,[r2,#4]
        0x08000838:    f001010c    ....    AND      r1,r1,#0xc
        0x0800083c:    4b51        QK      LDR      r3,[pc,#324] ; [0x8000984] = 0x7a1200
        0x0800083e:    2900        .)      CMP      r1,#0
        0x08000840:    d027        '.      BEQ      0x8000892 ; RCC_GetClocksFreq + 96
        0x08000842:    2904        .)      CMP      r1,#4
        0x08000844:    d027        '.      BEQ      0x8000896 ; RCC_GetClocksFreq + 100
        0x08000846:    2908        .)      CMP      r1,#8
        0x08000848:    d027        '.      BEQ      0x800089a ; RCC_GetClocksFreq + 104
        0x0800084a:    6003        .`      STR      r3,[r0,#0]
        0x0800084c:    6851        Qh      LDR      r1,[r2,#4]
        0x0800084e:    f00101f0    ....    AND      r1,r1,#0xf0
        0x08000852:    0909        ..      LSRS     r1,r1,#4
        0x08000854:    4b4c        LK      LDR      r3,[pc,#304] ; [0x8000988] = 0x20000018
        0x08000856:    5c5c        \\      LDRB     r4,[r3,r1]
        0x08000858:    6801        .h      LDR      r1,[r0,#0]
        0x0800085a:    40e1        .@      LSRS     r1,r1,r4
        0x0800085c:    6041        A`      STR      r1,[r0,#4]
        0x0800085e:    6854        Th      LDR      r4,[r2,#4]
        0x08000860:    f40464e0    ...d    AND      r4,r4,#0x700
        0x08000864:    0a24        $.      LSRS     r4,r4,#8
        0x08000866:    5d1c        .]      LDRB     r4,[r3,r4]
        0x08000868:    fa21f404    !...    LSR      r4,r1,r4
        0x0800086c:    6084        .`      STR      r4,[r0,#8]
        0x0800086e:    6854        Th      LDR      r4,[r2,#4]
        0x08000870:    f4045460    ..`T    AND      r4,r4,#0x3800
        0x08000874:    0ae4        ..      LSRS     r4,r4,#11
        0x08000876:    5d1b        .]      LDRB     r3,[r3,r4]
        0x08000878:    40d9        .@      LSRS     r1,r1,r3
        0x0800087a:    60c1        .`      STR      r1,[r0,#0xc]
        0x0800087c:    6852        Rh      LDR      r2,[r2,#4]
        0x0800087e:    f4024240    ..@B    AND      r2,r2,#0xc000
        0x08000882:    0b92        ..      LSRS     r2,r2,#14
        0x08000884:    4b40        @K      LDR      r3,[pc,#256] ; [0x8000988] = 0x20000018
        0x08000886:    1f1b        ..      SUBS     r3,r3,#4
        0x08000888:    5c9a        .\      LDRB     r2,[r3,r2]
        0x0800088a:    fbb1f1f2    ....    UDIV     r1,r1,r2
        0x0800088e:    6101        .a      STR      r1,[r0,#0x10]
        0x08000890:    bd10        ..      POP      {r4,pc}
        0x08000892:    6003        .`      STR      r3,[r0,#0]
        0x08000894:    e7da        ..      B        0x800084c ; RCC_GetClocksFreq + 26
        0x08000896:    6003        .`      STR      r3,[r0,#0]
        0x08000898:    e7d8        ..      B        0x800084c ; RCC_GetClocksFreq + 26
        0x0800089a:    6851        Qh      LDR      r1,[r2,#4]
        0x0800089c:    f4011170    ..p.    AND      r1,r1,#0x3c0000
        0x080008a0:    6853        Sh      LDR      r3,[r2,#4]
        0x080008a2:    f4033380    ...3    AND      r3,r3,#0x10000
        0x080008a6:    2402        .$      MOVS     r4,#2
        0x080008a8:    eb044191    ...A    ADD      r1,r4,r1,LSR #18
        0x080008ac:    b133        3.      CBZ      r3,0x80008bc ; RCC_GetClocksFreq + 138
        0x080008ae:    6853        Sh      LDR      r3,[r2,#4]
        0x080008b0:    039b        ..      LSLS     r3,r3,#14
        0x080008b2:    d507        ..      BPL      0x80008c4 ; RCC_GetClocksFreq + 146
        0x080008b4:    4b35        5K      LDR      r3,[pc,#212] ; [0x800098c] = 0x3d0900
        0x080008b6:    4359        YC      MULS     r1,r3,r1
        0x080008b8:    6001        .`      STR      r1,[r0,#0]
        0x080008ba:    e7c7        ..      B        0x800084c ; RCC_GetClocksFreq + 26
        0x080008bc:    4b33        3K      LDR      r3,[pc,#204] ; [0x800098c] = 0x3d0900
        0x080008be:    4359        YC      MULS     r1,r3,r1
        0x080008c0:    6001        .`      STR      r1,[r0,#0]
        0x080008c2:    e7c3        ..      B        0x800084c ; RCC_GetClocksFreq + 26
        0x080008c4:    4b2f        /K      LDR      r3,[pc,#188] ; [0x8000984] = 0x7a1200
        0x080008c6:    4359        YC      MULS     r1,r3,r1
        0x080008c8:    6001        .`      STR      r1,[r0,#0]
        0x080008ca:    e7bf        ..      B        0x800084c ; RCC_GetClocksFreq + 26
    RCC_AHBPeriphClockCmd
        0x080008cc:    4a28        (J      LDR      r2,[pc,#160] ; [0x8000970] = 0x40021000
        0x080008ce:    2900        .)      CMP      r1,#0
        0x080008d0:    d003        ..      BEQ      0x80008da ; RCC_AHBPeriphClockCmd + 14
        0x080008d2:    6951        Qi      LDR      r1,[r2,#0x14]
        0x080008d4:    4301        .C      ORRS     r1,r1,r0
        0x080008d6:    6151        Qa      STR      r1,[r2,#0x14]
        0x080008d8:    4770        pG      BX       lr
        0x080008da:    6951        Qi      LDR      r1,[r2,#0x14]
        0x080008dc:    4381        .C      BICS     r1,r1,r0
        0x080008de:    6151        Qa      STR      r1,[r2,#0x14]
        0x080008e0:    4770        pG      BX       lr
    RCC_APB2PeriphClockCmd
        0x080008e2:    4a23        #J      LDR      r2,[pc,#140] ; [0x8000970] = 0x40021000
        0x080008e4:    2900        .)      CMP      r1,#0
        0x080008e6:    d003        ..      BEQ      0x80008f0 ; RCC_APB2PeriphClockCmd + 14
        0x080008e8:    6991        .i      LDR      r1,[r2,#0x18]
        0x080008ea:    4301        .C      ORRS     r1,r1,r0
        0x080008ec:    6191        .a      STR      r1,[r2,#0x18]
        0x080008ee:    4770        pG      BX       lr
        0x080008f0:    6991        .i      LDR      r1,[r2,#0x18]
        0x080008f2:    4381        .C      BICS     r1,r1,r0
        0x080008f4:    6191        .a      STR      r1,[r2,#0x18]
        0x080008f6:    4770        pG      BX       lr
    RCC_APB1PeriphClockCmd
        0x080008f8:    4a1d        .J      LDR      r2,[pc,#116] ; [0x8000970] = 0x40021000
        0x080008fa:    2900        .)      CMP      r1,#0
        0x080008fc:    d003        ..      BEQ      0x8000906 ; RCC_APB1PeriphClockCmd + 14
        0x080008fe:    69d1        .i      LDR      r1,[r2,#0x1c]
        0x08000900:    4301        .C      ORRS     r1,r1,r0
        0x08000902:    61d1        .a      STR      r1,[r2,#0x1c]
        0x08000904:    4770        pG      BX       lr
        0x08000906:    69d1        .i      LDR      r1,[r2,#0x1c]
        0x08000908:    4381        .C      BICS     r1,r1,r0
        0x0800090a:    61d1        .a      STR      r1,[r2,#0x1c]
        0x0800090c:    4770        pG      BX       lr
    RCC_APB2PeriphResetCmd
        0x0800090e:    4a18        .J      LDR      r2,[pc,#96] ; [0x8000970] = 0x40021000
        0x08000910:    2900        .)      CMP      r1,#0
        0x08000912:    d003        ..      BEQ      0x800091c ; RCC_APB2PeriphResetCmd + 14
        0x08000914:    68d1        .h      LDR      r1,[r2,#0xc]
        0x08000916:    4301        .C      ORRS     r1,r1,r0
        0x08000918:    60d1        .`      STR      r1,[r2,#0xc]
        0x0800091a:    4770        pG      BX       lr
        0x0800091c:    68d1        .h      LDR      r1,[r2,#0xc]
        0x0800091e:    4381        .C      BICS     r1,r1,r0
        0x08000920:    60d1        .`      STR      r1,[r2,#0xc]
        0x08000922:    4770        pG      BX       lr
    RCC_APB1PeriphResetCmd
        0x08000924:    4a12        .J      LDR      r2,[pc,#72] ; [0x8000970] = 0x40021000
        0x08000926:    2900        .)      CMP      r1,#0
        0x08000928:    d003        ..      BEQ      0x8000932 ; RCC_APB1PeriphResetCmd + 14
        0x0800092a:    6911        .i      LDR      r1,[r2,#0x10]
        0x0800092c:    4301        .C      ORRS     r1,r1,r0
        0x0800092e:    6111        .a      STR      r1,[r2,#0x10]
        0x08000930:    4770        pG      BX       lr
        0x08000932:    6911        .i      LDR      r1,[r2,#0x10]
        0x08000934:    4381        .C      BICS     r1,r1,r0
        0x08000936:    6111        .a      STR      r1,[r2,#0x10]
        0x08000938:    4770        pG      BX       lr
    RCC_BackupResetCmd
        0x0800093a:    4911        .I      LDR      r1,[pc,#68] ; [0x8000980] = 0x42420480
        0x0800093c:    3940        @9      SUBS     r1,r1,#0x40
        0x0800093e:    6008        .`      STR      r0,[r1,#0]
        0x08000940:    4770        pG      BX       lr
    RCC_ClockSecuritySystemCmd
        0x08000942:    490e        .I      LDR      r1,[pc,#56] ; [0x800097c] = 0x42420000
        0x08000944:    64c8        .d      STR      r0,[r1,#0x4c]
        0x08000946:    4770        pG      BX       lr
    RCC_MCOConfig
        0x08000948:    4909        .I      LDR      r1,[pc,#36] ; [0x8000970] = 0x40021000
        0x0800094a:    71c8        .q      STRB     r0,[r1,#7]
        0x0800094c:    4770        pG      BX       lr
    RCC_ClearFlag
        0x0800094e:    4808        .H      LDR      r0,[pc,#32] ; [0x8000970] = 0x40021000
        0x08000950:    6a41        Aj      LDR      r1,[r0,#0x24]
        0x08000952:    f0417180    A..q    ORR      r1,r1,#0x1000000
        0x08000956:    6241        Ab      STR      r1,[r0,#0x24]
        0x08000958:    4770        pG      BX       lr
    RCC_GetITStatus
        0x0800095a:    4601        .F      MOV      r1,r0
        0x0800095c:    2000        .       MOVS     r0,#0
        0x0800095e:    4a04        .J      LDR      r2,[pc,#16] ; [0x8000970] = 0x40021000
        0x08000960:    6892        .h      LDR      r2,[r2,#8]
        0x08000962:    420a        .B      TST      r2,r1
        0x08000964:    d000        ..      BEQ      0x8000968 ; RCC_GetITStatus + 14
        0x08000966:    2001        .       MOVS     r0,#1
        0x08000968:    4770        pG      BX       lr
    RCC_ClearITPendingBit
        0x0800096a:    4901        .I      LDR      r1,[pc,#4] ; [0x8000970] = 0x40021000
        0x0800096c:    7288        .r      STRB     r0,[r1,#0xa]
        0x0800096e:    4770        pG      BX       lr
    $d
        0x08000970:    40021000    ...@    DCD    1073876992
        0x08000974:    f8ff0000    ....    DCD    4177461248
        0x08000978:    fef6ffff    ....    DCD    4277600255
        0x0800097c:    42420000    ..BB    DCD    1111621632
        0x08000980:    42420480    ..BB    DCD    1111622784
        0x08000984:    007a1200    ..z.    DCD    8000000
        0x08000988:    20000018    ...     DCD    536870936
        0x0800098c:    003d0900    ..=.    DCD    4000000
    $t
    .text
    USART_DeInit
        0x08000990:    b510        ..      PUSH     {r4,lr}
        0x08000992:    49e1        .I      LDR      r1,[pc,#900] ; [0x8000d18] = 0x40013800
        0x08000994:    4288        .B      CMP      r0,r1
        0x08000996:    d10a        ..      BNE      0x80009ae ; USART_DeInit + 30
        0x08000998:    2101        .!      MOVS     r1,#1
        0x0800099a:    038c        ..      LSLS     r4,r1,#14
        0x0800099c:    4620         F      MOV      r0,r4
        0x0800099e:    f7ffffb6    ....    BL       RCC_APB2PeriphResetCmd ; 0x800090e
        0x080009a2:    4620         F      MOV      r0,r4
        0x080009a4:    e8bd4010    ...@    POP      {r4,lr}
        0x080009a8:    2100        .!      MOVS     r1,#0
        0x080009aa:    f7ffbfb0    ....    B.W      RCC_APB2PeriphResetCmd ; 0x800090e
        0x080009ae:    49db        .I      LDR      r1,[pc,#876] ; [0x8000d1c] = 0x40004400
        0x080009b0:    4288        .B      CMP      r0,r1
        0x080009b2:    d10a        ..      BNE      0x80009ca ; USART_DeInit + 58
        0x080009b4:    2101        .!      MOVS     r1,#1
        0x080009b6:    044c        L.      LSLS     r4,r1,#17
        0x080009b8:    4620         F      MOV      r0,r4
        0x080009ba:    f7ffffb3    ....    BL       RCC_APB1PeriphResetCmd ; 0x8000924
        0x080009be:    4620         F      MOV      r0,r4
        0x080009c0:    e8bd4010    ...@    POP      {r4,lr}
        0x080009c4:    2100        .!      MOVS     r1,#0
        0x080009c6:    f7ffbfad    ....    B.W      RCC_APB1PeriphResetCmd ; 0x8000924
        0x080009ca:    49d5        .I      LDR      r1,[pc,#852] ; [0x8000d20] = 0x40004800
        0x080009cc:    4288        .B      CMP      r0,r1
        0x080009ce:    d10a        ..      BNE      0x80009e6 ; USART_DeInit + 86
        0x080009d0:    2101        .!      MOVS     r1,#1
        0x080009d2:    048c        ..      LSLS     r4,r1,#18
        0x080009d4:    4620         F      MOV      r0,r4
        0x080009d6:    f7ffffa5    ....    BL       RCC_APB1PeriphResetCmd ; 0x8000924
        0x080009da:    4620         F      MOV      r0,r4
        0x080009dc:    e8bd4010    ...@    POP      {r4,lr}
        0x080009e0:    2100        .!      MOVS     r1,#0
        0x080009e2:    f7ffbf9f    ....    B.W      RCC_APB1PeriphResetCmd ; 0x8000924
        0x080009e6:    49cf        .I      LDR      r1,[pc,#828] ; [0x8000d24] = 0x40004c00
        0x080009e8:    4288        .B      CMP      r0,r1
        0x080009ea:    d10a        ..      BNE      0x8000a02 ; USART_DeInit + 114
        0x080009ec:    2101        .!      MOVS     r1,#1
        0x080009ee:    04cc        ..      LSLS     r4,r1,#19
        0x080009f0:    4620         F      MOV      r0,r4
        0x080009f2:    f7ffff97    ....    BL       RCC_APB1PeriphResetCmd ; 0x8000924
        0x080009f6:    4620         F      MOV      r0,r4
        0x080009f8:    e8bd4010    ...@    POP      {r4,lr}
        0x080009fc:    2100        .!      MOVS     r1,#0
        0x080009fe:    f7ffbf91    ....    B.W      RCC_APB1PeriphResetCmd ; 0x8000924
        0x08000a02:    49c9        .I      LDR      r1,[pc,#804] ; [0x8000d28] = 0x40005000
        0x08000a04:    4288        .B      CMP      r0,r1
        0x08000a06:    d10a        ..      BNE      0x8000a1e ; USART_DeInit + 142
        0x08000a08:    2101        .!      MOVS     r1,#1
        0x08000a0a:    050c        ..      LSLS     r4,r1,#20
        0x08000a0c:    4620         F      MOV      r0,r4
        0x08000a0e:    f7ffff89    ....    BL       RCC_APB1PeriphResetCmd ; 0x8000924
        0x08000a12:    4620         F      MOV      r0,r4
        0x08000a14:    e8bd4010    ...@    POP      {r4,lr}
        0x08000a18:    2100        .!      MOVS     r1,#0
        0x08000a1a:    f7ffbf83    ....    B.W      RCC_APB1PeriphResetCmd ; 0x8000924
        0x08000a1e:    bd10        ..      POP      {r4,pc}
    USART_Init
        0x08000a20:    b530        0.      PUSH     {r4,r5,lr}
        0x08000a22:    b085        ..      SUB      sp,sp,#0x14
        0x08000a24:    4604        .F      MOV      r4,r0
        0x08000a26:    460d        .F      MOV      r5,r1
        0x08000a28:    8a20         .      LDRH     r0,[r4,#0x10]
        0x08000a2a:    f64c71ff    L..q    MOV      r1,#0xcfff
        0x08000a2e:    4008        .@      ANDS     r0,r0,r1
        0x08000a30:    88e9        ..      LDRH     r1,[r5,#6]
        0x08000a32:    4301        .C      ORRS     r1,r1,r0
        0x08000a34:    8221        !.      STRH     r1,[r4,#0x10]
        0x08000a36:    89a0        ..      LDRH     r0,[r4,#0xc]
        0x08000a38:    f64e11f3    N...    MOV      r1,#0xe9f3
        0x08000a3c:    4008        .@      ANDS     r0,r0,r1
        0x08000a3e:    88a9        ..      LDRH     r1,[r5,#4]
        0x08000a40:    892a        *.      LDRH     r2,[r5,#8]
        0x08000a42:    4311        .C      ORRS     r1,r1,r2
        0x08000a44:    896a        j.      LDRH     r2,[r5,#0xa]
        0x08000a46:    4302        .C      ORRS     r2,r2,r0
        0x08000a48:    4311        .C      ORRS     r1,r1,r2
        0x08000a4a:    81a1        ..      STRH     r1,[r4,#0xc]
        0x08000a4c:    8aa0        ..      LDRH     r0,[r4,#0x14]
        0x08000a4e:    f64f41ff    O..A    MOV      r1,#0xfcff
        0x08000a52:    4008        .@      ANDS     r0,r0,r1
        0x08000a54:    89a9        ..      LDRH     r1,[r5,#0xc]
        0x08000a56:    4301        .C      ORRS     r1,r1,r0
        0x08000a58:    82a1        ..      STRH     r1,[r4,#0x14]
        0x08000a5a:    4668        hF      MOV      r0,sp
        0x08000a5c:    f7fffee9    ....    BL       RCC_GetClocksFreq ; 0x8000832
        0x08000a60:    48ad        .H      LDR      r0,[pc,#692] ; [0x8000d18] = 0x40013800
        0x08000a62:    4284        .B      CMP      r4,r0
        0x08000a64:    d101        ..      BNE      0x8000a6a ; USART_Init + 74
        0x08000a66:    9803        ..      LDR      r0,[sp,#0xc]
        0x08000a68:    e000        ..      B        0x8000a6c ; USART_Init + 76
        0x08000a6a:    9802        ..      LDR      r0,[sp,#8]
        0x08000a6c:    89a1        ..      LDRH     r1,[r4,#0xc]
        0x08000a6e:    0409        ..      LSLS     r1,r1,#16
        0x08000a70:    d508        ..      BPL      0x8000a84 ; USART_Init + 100
        0x08000a72:    eb0001c0    ....    ADD      r1,r0,r0,LSL #3
        0x08000a76:    eb011000    ....    ADD      r0,r1,r0,LSL #4
        0x08000a7a:    6829        )h      LDR      r1,[r5,#0]
        0x08000a7c:    0049        I.      LSLS     r1,r1,#1
        0x08000a7e:    fbb0f0f1    ....    UDIV     r0,r0,r1
        0x08000a82:    e007        ..      B        0x8000a94 ; USART_Init + 116
        0x08000a84:    eb0001c0    ....    ADD      r1,r0,r0,LSL #3
        0x08000a88:    eb011000    ....    ADD      r0,r1,r0,LSL #4
        0x08000a8c:    6829        )h      LDR      r1,[r5,#0]
        0x08000a8e:    0089        ..      LSLS     r1,r1,#2
        0x08000a90:    fbb0f0f1    ....    UDIV     r0,r0,r1
        0x08000a94:    2264        d"      MOVS     r2,#0x64
        0x08000a96:    fbb0f1f2    ....    UDIV     r1,r0,r2
        0x08000a9a:    0109        ..      LSLS     r1,r1,#4
        0x08000a9c:    090b        ..      LSRS     r3,r1,#4
        0x08000a9e:    f06f0518    o...    MVN      r5,#0x18
        0x08000aa2:    436b        kC      MULS     r3,r5,r3
        0x08000aa4:    eb000083    ....    ADD      r0,r0,r3,LSL #2
        0x08000aa8:    89a3        ..      LDRH     r3,[r4,#0xc]
        0x08000aaa:    041d        ..      LSLS     r5,r3,#16
        0x08000aac:    f04f0332    O.2.    MOV      r3,#0x32
        0x08000ab0:    d507        ..      BPL      0x8000ac2 ; USART_Init + 162
        0x08000ab2:    eb0300c0    ....    ADD      r0,r3,r0,LSL #3
        0x08000ab6:    fbb0f0f2    ....    UDIV     r0,r0,r2
        0x08000aba:    f0000007    ....    AND      r0,r0,#7
        0x08000abe:    4308        .C      ORRS     r0,r0,r1
        0x08000ac0:    e006        ..      B        0x8000ad0 ; USART_Init + 176
        0x08000ac2:    eb031000    ....    ADD      r0,r3,r0,LSL #4
        0x08000ac6:    fbb0f0f2    ....    UDIV     r0,r0,r2
        0x08000aca:    f000000f    ....    AND      r0,r0,#0xf
        0x08000ace:    4308        .C      ORRS     r0,r0,r1
        0x08000ad0:    8120         .      STRH     r0,[r4,#8]
        0x08000ad2:    b005        ..      ADD      sp,sp,#0x14
        0x08000ad4:    bd30        0.      POP      {r4,r5,pc}
    USART_StructInit
        0x08000ad6:    f44f5116    O..Q    MOV      r1,#0x2580
        0x08000ada:    6001        .`      STR      r1,[r0,#0]
        0x08000adc:    2100        .!      MOVS     r1,#0
        0x08000ade:    8081        ..      STRH     r1,[r0,#4]
        0x08000ae0:    80c1        ..      STRH     r1,[r0,#6]
        0x08000ae2:    8101        ..      STRH     r1,[r0,#8]
        0x08000ae4:    220c        ."      MOVS     r2,#0xc
        0x08000ae6:    8142        B.      STRH     r2,[r0,#0xa]
        0x08000ae8:    8181        ..      STRH     r1,[r0,#0xc]
        0x08000aea:    4770        pG      BX       lr
    USART_ClockInit
        0x08000aec:    b510        ..      PUSH     {r4,lr}
        0x08000aee:    8a03        ..      LDRH     r3,[r0,#0x10]
        0x08000af0:    f24f02ff    O...    MOV      r2,#0xf0ff
        0x08000af4:    4013        .@      ANDS     r3,r3,r2
        0x08000af6:    880a        ..      LDRH     r2,[r1,#0]
        0x08000af8:    884c        L.      LDRH     r4,[r1,#2]
        0x08000afa:    4322        "C      ORRS     r2,r2,r4
        0x08000afc:    888c        ..      LDRH     r4,[r1,#4]
        0x08000afe:    88c9        ..      LDRH     r1,[r1,#6]
        0x08000b00:    430c        .C      ORRS     r4,r4,r1
        0x08000b02:    4322        "C      ORRS     r2,r2,r4
        0x08000b04:    431a        .C      ORRS     r2,r2,r3
        0x08000b06:    8202        ..      STRH     r2,[r0,#0x10]
        0x08000b08:    bd10        ..      POP      {r4,pc}
    USART_ClockStructInit
        0x08000b0a:    2100        .!      MOVS     r1,#0
        0x08000b0c:    8001        ..      STRH     r1,[r0,#0]
        0x08000b0e:    8041        A.      STRH     r1,[r0,#2]
        0x08000b10:    8081        ..      STRH     r1,[r0,#4]
        0x08000b12:    80c1        ..      STRH     r1,[r0,#6]
        0x08000b14:    4770        pG      BX       lr
    USART_Cmd
        0x08000b16:    2900        .)      CMP      r1,#0
        0x08000b18:    d004        ..      BEQ      0x8000b24 ; USART_Cmd + 14
        0x08000b1a:    8981        ..      LDRH     r1,[r0,#0xc]
        0x08000b1c:    f4415100    A..Q    ORR      r1,r1,#0x2000
        0x08000b20:    8181        ..      STRH     r1,[r0,#0xc]
        0x08000b22:    4770        pG      BX       lr
        0x08000b24:    8981        ..      LDRH     r1,[r0,#0xc]
        0x08000b26:    f4215100    !..Q    BIC      r1,r1,#0x2000
        0x08000b2a:    8181        ..      STRH     r1,[r0,#0xc]
        0x08000b2c:    4770        pG      BX       lr
    USART_ITConfig
        0x08000b2e:    b510        ..      PUSH     {r4,lr}
        0x08000b30:    f640136a    @.j.    MOV      r3,#0x96a
        0x08000b34:    f3c11342    ..B.    UBFX     r3,r1,#5,#3
        0x08000b38:    f001041f    ....    AND      r4,r1,#0x1f
        0x08000b3c:    2101        .!      MOVS     r1,#1
        0x08000b3e:    40a1        .@      LSLS     r1,r1,r4
        0x08000b40:    2b01        .+      CMP      r3,#1
        0x08000b42:    d007        ..      BEQ      0x8000b54 ; USART_ITConfig + 38
        0x08000b44:    2b02        .+      CMP      r3,#2
        0x08000b46:    d007        ..      BEQ      0x8000b58 ; USART_ITConfig + 42
        0x08000b48:    3014        .0      ADDS     r0,r0,#0x14
        0x08000b4a:    b13a        :.      CBZ      r2,0x8000b5c ; USART_ITConfig + 46
        0x08000b4c:    6802        .h      LDR      r2,[r0,#0]
        0x08000b4e:    430a        .C      ORRS     r2,r2,r1
        0x08000b50:    6002        .`      STR      r2,[r0,#0]
        0x08000b52:    bd10        ..      POP      {r4,pc}
        0x08000b54:    300c        .0      ADDS     r0,r0,#0xc
        0x08000b56:    e7f8        ..      B        0x8000b4a ; USART_ITConfig + 28
        0x08000b58:    3010        .0      ADDS     r0,r0,#0x10
        0x08000b5a:    e7f6        ..      B        0x8000b4a ; USART_ITConfig + 28
        0x08000b5c:    6802        .h      LDR      r2,[r0,#0]
        0x08000b5e:    438a        .C      BICS     r2,r2,r1
        0x08000b60:    6002        .`      STR      r2,[r0,#0]
        0x08000b62:    bd10        ..      POP      {r4,pc}
    USART_DMACmd
        0x08000b64:    2a00        .*      CMP      r2,#0
        0x08000b66:    d003        ..      BEQ      0x8000b70 ; USART_DMACmd + 12
        0x08000b68:    8a82        ..      LDRH     r2,[r0,#0x14]
        0x08000b6a:    430a        .C      ORRS     r2,r2,r1
        0x08000b6c:    8282        ..      STRH     r2,[r0,#0x14]
        0x08000b6e:    4770        pG      BX       lr
        0x08000b70:    8a82        ..      LDRH     r2,[r0,#0x14]
        0x08000b72:    438a        .C      BICS     r2,r2,r1
        0x08000b74:    8282        ..      STRH     r2,[r0,#0x14]
        0x08000b76:    4770        pG      BX       lr
    USART_SetAddress
        0x08000b78:    8a02        ..      LDRH     r2,[r0,#0x10]
        0x08000b7a:    f022020f    "...    BIC      r2,r2,#0xf
        0x08000b7e:    8202        ..      STRH     r2,[r0,#0x10]
        0x08000b80:    8a02        ..      LDRH     r2,[r0,#0x10]
        0x08000b82:    430a        .C      ORRS     r2,r2,r1
        0x08000b84:    8202        ..      STRH     r2,[r0,#0x10]
        0x08000b86:    4770        pG      BX       lr
    USART_WakeUpConfig
        0x08000b88:    8982        ..      LDRH     r2,[r0,#0xc]
        0x08000b8a:    f4226200    "..b    BIC      r2,r2,#0x800
        0x08000b8e:    8182        ..      STRH     r2,[r0,#0xc]
        0x08000b90:    8982        ..      LDRH     r2,[r0,#0xc]
        0x08000b92:    430a        .C      ORRS     r2,r2,r1
        0x08000b94:    8182        ..      STRH     r2,[r0,#0xc]
        0x08000b96:    4770        pG      BX       lr
    USART_ReceiverWakeUpCmd
        0x08000b98:    2900        .)      CMP      r1,#0
        0x08000b9a:    d004        ..      BEQ      0x8000ba6 ; USART_ReceiverWakeUpCmd + 14
        0x08000b9c:    8981        ..      LDRH     r1,[r0,#0xc]
        0x08000b9e:    f0410102    A...    ORR      r1,r1,#2
        0x08000ba2:    8181        ..      STRH     r1,[r0,#0xc]
        0x08000ba4:    4770        pG      BX       lr
        0x08000ba6:    8981        ..      LDRH     r1,[r0,#0xc]
        0x08000ba8:    f0210102    !...    BIC      r1,r1,#2
        0x08000bac:    8181        ..      STRH     r1,[r0,#0xc]
        0x08000bae:    4770        pG      BX       lr
    USART_LINBreakDetectLengthConfig
        0x08000bb0:    8a02        ..      LDRH     r2,[r0,#0x10]
        0x08000bb2:    f0220220    ". .    BIC      r2,r2,#0x20
        0x08000bb6:    8202        ..      STRH     r2,[r0,#0x10]
        0x08000bb8:    8a02        ..      LDRH     r2,[r0,#0x10]
        0x08000bba:    430a        .C      ORRS     r2,r2,r1
        0x08000bbc:    8202        ..      STRH     r2,[r0,#0x10]
        0x08000bbe:    4770        pG      BX       lr
    USART_LINCmd
        0x08000bc0:    2900        .)      CMP      r1,#0
        0x08000bc2:    d004        ..      BEQ      0x8000bce ; USART_LINCmd + 14
        0x08000bc4:    8a01        ..      LDRH     r1,[r0,#0x10]
        0x08000bc6:    f4414180    A..A    ORR      r1,r1,#0x4000
        0x08000bca:    8201        ..      STRH     r1,[r0,#0x10]
        0x08000bcc:    4770        pG      BX       lr
        0x08000bce:    8a01        ..      LDRH     r1,[r0,#0x10]
        0x08000bd0:    f4214180    !..A    BIC      r1,r1,#0x4000
        0x08000bd4:    8201        ..      STRH     r1,[r0,#0x10]
        0x08000bd6:    4770        pG      BX       lr
    USART_SendData
        0x08000bd8:    f3c10108    ....    UBFX     r1,r1,#0,#9
        0x08000bdc:    8081        ..      STRH     r1,[r0,#4]
        0x08000bde:    4770        pG      BX       lr
    USART_ReceiveData
        0x08000be0:    8880        ..      LDRH     r0,[r0,#4]
        0x08000be2:    f3c00008    ....    UBFX     r0,r0,#0,#9
        0x08000be6:    4770        pG      BX       lr
    USART_SendBreak
        0x08000be8:    8981        ..      LDRH     r1,[r0,#0xc]
        0x08000bea:    f0410101    A...    ORR      r1,r1,#1
        0x08000bee:    8181        ..      STRH     r1,[r0,#0xc]
        0x08000bf0:    4770        pG      BX       lr
    USART_SetGuardTime
        0x08000bf2:    8b02        ..      LDRH     r2,[r0,#0x18]
        0x08000bf4:    b2d2        ..      UXTB     r2,r2
        0x08000bf6:    8302        ..      STRH     r2,[r0,#0x18]
        0x08000bf8:    8b02        ..      LDRH     r2,[r0,#0x18]
        0x08000bfa:    ea422101    B..!    ORR      r1,r2,r1,LSL #8
        0x08000bfe:    8301        ..      STRH     r1,[r0,#0x18]
        0x08000c00:    4770        pG      BX       lr
    USART_SetPrescaler
        0x08000c02:    8b02        ..      LDRH     r2,[r0,#0x18]
        0x08000c04:    f402427f    ...B    AND      r2,r2,#0xff00
        0x08000c08:    8302        ..      STRH     r2,[r0,#0x18]
        0x08000c0a:    8b02        ..      LDRH     r2,[r0,#0x18]
        0x08000c0c:    430a        .C      ORRS     r2,r2,r1
        0x08000c0e:    8302        ..      STRH     r2,[r0,#0x18]
        0x08000c10:    4770        pG      BX       lr
    USART_SmartCardCmd
        0x08000c12:    2900        .)      CMP      r1,#0
        0x08000c14:    d004        ..      BEQ      0x8000c20 ; USART_SmartCardCmd + 14
        0x08000c16:    8a81        ..      LDRH     r1,[r0,#0x14]
        0x08000c18:    f0410120    A. .    ORR      r1,r1,#0x20
        0x08000c1c:    8281        ..      STRH     r1,[r0,#0x14]
        0x08000c1e:    4770        pG      BX       lr
        0x08000c20:    8a81        ..      LDRH     r1,[r0,#0x14]
        0x08000c22:    f0210120    !. .    BIC      r1,r1,#0x20
        0x08000c26:    8281        ..      STRH     r1,[r0,#0x14]
        0x08000c28:    4770        pG      BX       lr
    USART_SmartCardNACKCmd
        0x08000c2a:    2900        .)      CMP      r1,#0
        0x08000c2c:    d004        ..      BEQ      0x8000c38 ; USART_SmartCardNACKCmd + 14
        0x08000c2e:    8a81        ..      LDRH     r1,[r0,#0x14]
        0x08000c30:    f0410110    A...    ORR      r1,r1,#0x10
        0x08000c34:    8281        ..      STRH     r1,[r0,#0x14]
        0x08000c36:    4770        pG      BX       lr
        0x08000c38:    8a81        ..      LDRH     r1,[r0,#0x14]
        0x08000c3a:    f0210110    !...    BIC      r1,r1,#0x10
        0x08000c3e:    8281        ..      STRH     r1,[r0,#0x14]
        0x08000c40:    4770        pG      BX       lr
    USART_HalfDuplexCmd
        0x08000c42:    2900        .)      CMP      r1,#0
        0x08000c44:    d004        ..      BEQ      0x8000c50 ; USART_HalfDuplexCmd + 14
        0x08000c46:    8a81        ..      LDRH     r1,[r0,#0x14]
        0x08000c48:    f0410108    A...    ORR      r1,r1,#8
        0x08000c4c:    8281        ..      STRH     r1,[r0,#0x14]
        0x08000c4e:    4770        pG      BX       lr
        0x08000c50:    8a81        ..      LDRH     r1,[r0,#0x14]
        0x08000c52:    f0210108    !...    BIC      r1,r1,#8
        0x08000c56:    8281        ..      STRH     r1,[r0,#0x14]
        0x08000c58:    4770        pG      BX       lr
    USART_OverSampling8Cmd
        0x08000c5a:    2900        .)      CMP      r1,#0
        0x08000c5c:    d004        ..      BEQ      0x8000c68 ; USART_OverSampling8Cmd + 14
        0x08000c5e:    8981        ..      LDRH     r1,[r0,#0xc]
        0x08000c60:    f4414100    A..A    ORR      r1,r1,#0x8000
        0x08000c64:    8181        ..      STRH     r1,[r0,#0xc]
        0x08000c66:    4770        pG      BX       lr
        0x08000c68:    8981        ..      LDRH     r1,[r0,#0xc]
        0x08000c6a:    f3c1010e    ....    UBFX     r1,r1,#0,#15
        0x08000c6e:    8181        ..      STRH     r1,[r0,#0xc]
        0x08000c70:    4770        pG      BX       lr
    USART_OneBitMethodCmd
        0x08000c72:    2900        .)      CMP      r1,#0
        0x08000c74:    d004        ..      BEQ      0x8000c80 ; USART_OneBitMethodCmd + 14
        0x08000c76:    8a81        ..      LDRH     r1,[r0,#0x14]
        0x08000c78:    f4416100    A..a    ORR      r1,r1,#0x800
        0x08000c7c:    8281        ..      STRH     r1,[r0,#0x14]
        0x08000c7e:    4770        pG      BX       lr
        0x08000c80:    8a81        ..      LDRH     r1,[r0,#0x14]
        0x08000c82:    f4216100    !..a    BIC      r1,r1,#0x800
        0x08000c86:    8281        ..      STRH     r1,[r0,#0x14]
        0x08000c88:    4770        pG      BX       lr
    USART_IrDAConfig
        0x08000c8a:    8a82        ..      LDRH     r2,[r0,#0x14]
        0x08000c8c:    f0220204    "...    BIC      r2,r2,#4
        0x08000c90:    8282        ..      STRH     r2,[r0,#0x14]
        0x08000c92:    8a82        ..      LDRH     r2,[r0,#0x14]
        0x08000c94:    430a        .C      ORRS     r2,r2,r1
        0x08000c96:    8282        ..      STRH     r2,[r0,#0x14]
        0x08000c98:    4770        pG      BX       lr
    USART_IrDACmd
        0x08000c9a:    2900        .)      CMP      r1,#0
        0x08000c9c:    d004        ..      BEQ      0x8000ca8 ; USART_IrDACmd + 14
        0x08000c9e:    8a81        ..      LDRH     r1,[r0,#0x14]
        0x08000ca0:    f0410102    A...    ORR      r1,r1,#2
        0x08000ca4:    8281        ..      STRH     r1,[r0,#0x14]
        0x08000ca6:    4770        pG      BX       lr
        0x08000ca8:    8a81        ..      LDRH     r1,[r0,#0x14]
        0x08000caa:    f0210102    !...    BIC      r1,r1,#2
        0x08000cae:    8281        ..      STRH     r1,[r0,#0x14]
        0x08000cb0:    4770        pG      BX       lr
    USART_GetFlagStatus
        0x08000cb2:    4602        .F      MOV      r2,r0
        0x08000cb4:    2000        .       MOVS     r0,#0
        0x08000cb6:    8812        ..      LDRH     r2,[r2,#0]
        0x08000cb8:    420a        .B      TST      r2,r1
        0x08000cba:    d000        ..      BEQ      0x8000cbe ; USART_GetFlagStatus + 12
        0x08000cbc:    2001        .       MOVS     r0,#1
        0x08000cbe:    4770        pG      BX       lr
    USART_ClearFlag
        0x08000cc0:    058a        ..      LSLS     r2,r1,#22
        0x08000cc2:    43c9        .C      MVNS     r1,r1
        0x08000cc4:    8001        ..      STRH     r1,[r0,#0]
        0x08000cc6:    4770        pG      BX       lr
    USART_GetITStatus
        0x08000cc8:    b570        p.      PUSH     {r4-r6,lr}
        0x08000cca:    2400        .$      MOVS     r4,#0
        0x08000ccc:    f640126a    @.j.    MOV      r2,#0x96a
        0x08000cd0:    f3c11342    ..B.    UBFX     r3,r1,#5,#3
        0x08000cd4:    f001051f    ....    AND      r5,r1,#0x1f
        0x08000cd8:    2601        .&      MOVS     r6,#1
        0x08000cda:    fa06f205    ....    LSL      r2,r6,r5
        0x08000cde:    2b01        .+      CMP      r3,#1
        0x08000ce0:    d00c        ..      BEQ      0x8000cfc ; USART_GetITStatus + 52
        0x08000ce2:    2b02        .+      CMP      r3,#2
        0x08000ce4:    d00d        ..      BEQ      0x8000d02 ; USART_GetITStatus + 58
        0x08000ce6:    8a83        ..      LDRH     r3,[r0,#0x14]
        0x08000ce8:    4013        .@      ANDS     r3,r3,r2
        0x08000cea:    0a09        ..      LSRS     r1,r1,#8
        0x08000cec:    408e        .@      LSLS     r6,r6,r1
        0x08000cee:    8800        ..      LDRH     r0,[r0,#0]
        0x08000cf0:    4030        0@      ANDS     r0,r0,r6
        0x08000cf2:    b10b        ..      CBZ      r3,0x8000cf8 ; USART_GetITStatus + 48
        0x08000cf4:    b100        ..      CBZ      r0,0x8000cf8 ; USART_GetITStatus + 48
        0x08000cf6:    2401        .$      MOVS     r4,#1
        0x08000cf8:    4620         F      MOV      r0,r4
        0x08000cfa:    bd70        p.      POP      {r4-r6,pc}
        0x08000cfc:    8983        ..      LDRH     r3,[r0,#0xc]
        0x08000cfe:    4013        .@      ANDS     r3,r3,r2
        0x08000d00:    e7f3        ..      B        0x8000cea ; USART_GetITStatus + 34
        0x08000d02:    8a03        ..      LDRH     r3,[r0,#0x10]
        0x08000d04:    4013        .@      ANDS     r3,r3,r2
        0x08000d06:    e7f0        ..      B        0x8000cea ; USART_GetITStatus + 34
    USART_ClearITPendingBit
        0x08000d08:    f640126a    @.j.    MOV      r2,#0x96a
        0x08000d0c:    0a0a        ..      LSRS     r2,r1,#8
        0x08000d0e:    2101        .!      MOVS     r1,#1
        0x08000d10:    4091        .@      LSLS     r1,r1,r2
        0x08000d12:    43c9        .C      MVNS     r1,r1
        0x08000d14:    8001        ..      STRH     r1,[r0,#0]
        0x08000d16:    4770        pG      BX       lr
    $d
        0x08000d18:    40013800    .8.@    DCD    1073821696
        0x08000d1c:    40004400    .D.@    DCD    1073759232
        0x08000d20:    40004800    .H.@    DCD    1073760256
        0x08000d24:    40004c00    .L.@    DCD    1073761280
        0x08000d28:    40005000    .P.@    DCD    1073762304
    $t
    .text
    __scatterload
    __scatterload_rt2
        0x08000d2c:    4c06        .L      LDR      r4,[pc,#24] ; [0x8000d48] = 0x8000db0
        0x08000d2e:    4d07        .M      LDR      r5,[pc,#28] ; [0x8000d4c] = 0x8000dd0
        0x08000d30:    e006        ..      B        0x8000d40 ; __scatterload + 20
        0x08000d32:    68e0        .h      LDR      r0,[r4,#0xc]
        0x08000d34:    f0400301    @...    ORR      r3,r0,#1
        0x08000d38:    e8940007    ....    LDM      r4,{r0-r2}
        0x08000d3c:    4798        .G      BLX      r3
        0x08000d3e:    3410        .4      ADDS     r4,r4,#0x10
        0x08000d40:    42ac        .B      CMP      r4,r5
        0x08000d42:    d3f6        ..      BCC      0x8000d32 ; __scatterload + 6
        0x08000d44:    f7fff9f8    ....    BL       __main_after_scatterload ; 0x8000138
    $d
        0x08000d48:    08000db0    ....    DCD    134221232
        0x08000d4c:    08000dd0    ....    DCD    134221264
    $t
    i.__0printf$bare
    __0printf$bare
    __1printf$bare
    __2printf
        0x08000d50:    4a01        .J      LDR      r2,[pc,#4] ; [0x8000d58] = 0x8000213
        0x08000d52:    4902        .I      LDR      r1,[pc,#8] ; [0x8000d5c] = 0x20000028
        0x08000d54:    f000b813    ....    B.W      _printf_core ; 0x8000d7e
    $d
        0x08000d58:    08000213    ....    DCD    134218259
        0x08000d5c:    20000028    (..     DCD    536870952
    $t
    i.__scatterload_copy
    __scatterload_copy
        0x08000d60:    e002        ..      B        0x8000d68 ; __scatterload_copy + 8
        0x08000d62:    c808        ..      LDM      r0!,{r3}
        0x08000d64:    1f12        ..      SUBS     r2,r2,#4
        0x08000d66:    c108        ..      STM      r1!,{r3}
        0x08000d68:    2a00        .*      CMP      r2,#0
        0x08000d6a:    d1fa        ..      BNE      0x8000d62 ; __scatterload_copy + 2
        0x08000d6c:    4770        pG      BX       lr
    i.__scatterload_null
    __scatterload_null
        0x08000d6e:    4770        pG      BX       lr
    i.__scatterload_zeroinit
    __scatterload_zeroinit
        0x08000d70:    2000        .       MOVS     r0,#0
        0x08000d72:    e001        ..      B        0x8000d78 ; __scatterload_zeroinit + 8
        0x08000d74:    c101        ..      STM      r1!,{r0}
        0x08000d76:    1f12        ..      SUBS     r2,r2,#4
        0x08000d78:    2a00        .*      CMP      r2,#0
        0x08000d7a:    d1fb        ..      BNE      0x8000d74 ; __scatterload_zeroinit + 4
        0x08000d7c:    4770        pG      BX       lr
    i._printf_core
    _printf_core
        0x08000d7e:    e92d41f0    -..A    PUSH     {r4-r8,lr}
        0x08000d82:    4616        .F      MOV      r6,r2
        0x08000d84:    460f        .F      MOV      r7,r1
        0x08000d86:    4604        .F      MOV      r4,r0
        0x08000d88:    2500        .%      MOVS     r5,#0
        0x08000d8a:    e003        ..      B        0x8000d94 ; _printf_core + 22
        0x08000d8c:    4639        9F      MOV      r1,r7
        0x08000d8e:    47b0        .G      BLX      r6
        0x08000d90:    1c64        d.      ADDS     r4,r4,#1
        0x08000d92:    1c6d        m.      ADDS     r5,r5,#1
        0x08000d94:    7820         x      LDRB     r0,[r4,#0]
        0x08000d96:    2800        .(      CMP      r0,#0
        0x08000d98:    d1f8        ..      BNE      0x8000d8c ; _printf_core + 14
        0x08000d9a:    4628        (F      MOV      r0,r5
        0x08000d9c:    e8bd81f0    ....    POP      {r4-r8,pc}
    $d.realdata
    .constdata
        0x08000da0:    10030001    ....    DCD    268632065
        0x08000da4:    48028000    ...H    DCD    1208123392
        0x08000da8:    18030200    ....    DCD    402850304
        0x08000dac:    04020400    ....    DCD    67240960
    Region$$Table$$Base
        0x08000db0:    08000dd0    ....    DCD    134221264
        0x08000db4:    20000000    ...     DCD    536870912
        0x08000db8:    0000002c    ,...    DCD    44
        0x08000dbc:    08000d60    `...    DCD    134221152
        0x08000dc0:    08000dfc    ....    DCD    134221308
        0x08000dc4:    2000002c    ,..     DCD    536870956
        0x08000dc8:    00000404    ....    DCD    1028
        0x08000dcc:    08000d70    p...    DCD    134221168
    Region$$Table$$Limit

** Section #2 'RW_IRAM1' (SHT_PROGBITS) [SHF_ALLOC + SHF_WRITE]
    Size   : 44 bytes (alignment 4)
    Address: 0x20000000


** Section #3 'RW_IRAM1' (SHT_NOBITS) [SHF_ALLOC + SHF_WRITE]
    Size   : 1028 bytes (alignment 8)
    Address: 0x2000002c


** Section #4 '.debug_abbrev' (SHT_PROGBITS)
    Size   : 1476 bytes


** Section #5 '.debug_frame' (SHT_PROGBITS)
    Size   : 2372 bytes


** Section #6 '.debug_info' (SHT_PROGBITS)
    Size   : 22524 bytes


** Section #7 '.debug_line' (SHT_PROGBITS)
    Size   : 5436 bytes


** Section #8 '.debug_loc' (SHT_PROGBITS)
    Size   : 6188 bytes


** Section #9 '.debug_macinfo' (SHT_PROGBITS)
    Size   : 235072 bytes


** Section #10 '.debug_pubnames' (SHT_PROGBITS)
    Size   : 2060 bytes


** Section #11 '.symtab' (SHT_SYMTAB)
    Size   : 5264 bytes (alignment 4)
    String table #12 '.strtab'
    Last local symbol no. 145


** Section #12 '.strtab' (SHT_STRTAB)
    Size   : 6508 bytes


** Section #13 '.note' (SHT_NOTE)
    Size   : 28 bytes (alignment 4)


** Section #14 '.comment' (SHT_PROGBITS)
    Size   : 25812 bytes


** Section #15 '.shstrtab' (SHT_STRTAB)
    Size   : 156 bytes


address     size       variable name                            type
0x20000014  0x4        ADCPrescTable                            array[4] of volatile const uint8_t

address     size       variable name                            type
0x20000018  0x10       APBAHBPrescTable                         array[16] of volatile const uint8_t

address     size       variable name                            type
0x20000004  0x10       AHBPrescTable                            array[16] of volatile const uint8_t

address     size       variable name                            type
0x20000000  0x4        SystemCoreClock                          uint32_t

